	.section	__TEXT,__text,regular,pure_instructions
	.build_version macos, 11, 0
	.p2align	2
__ZN102_$LT$core..str..iter..CharIndices$u20$as$u20$core..iter..traits..double_ended..DoubleEndedIterator$GT$9next_back17hb609eed01b429f43E:
Lfunc_begin0:
	.file	1 "/rustc/c5d82ed7a4ad94a538bb87e5016e7d5ce0bd434b/library/core/src/str" "iter.rs"
	.loc	1 171 0
	.cfi_startproc
	sub	sp, sp, #64
	.cfi_def_cfa_offset 64
	stp	x29, x30, [sp, #48]
	add	x29, sp, #48
	.cfi_def_cfa w29, 16
	.cfi_offset w30, -8
	.cfi_offset w29, -16
	str	x0, [sp, #8]
	stur	x0, [x29, #-16]
Ltmp0:
	.loc	1 172 9 prologue_end
	add	x0, x0, #8
	mov	x8, x0
	stur	x8, [x29, #-8]
Ltmp1:
	.loc	1 84 18
	bl	__ZN4core3str11validations23next_code_point_reverse17h835ba35921e38f76E
	bl	__ZN4core6option15Option$LT$T$GT$3map17h3d783245c9f62e96E
	ldr	x9, [sp, #8]
Ltmp2:
	.loc	1 172 35
	mov	x8, x9
	add	x8, x8, #8
	str	x9, [sp, #16]
	str	x8, [sp, #24]
	.loc	1 172 9 is_stmt 0
	ldr	x1, [sp, #16]
	ldr	x2, [sp, #24]
	bl	__ZN4core6option15Option$LT$T$GT$3map17h6d3e4b14d9eabdc5E
	.cfi_def_cfa wsp, 64
	.loc	1 176 6 is_stmt 1
	ldp	x29, x30, [sp, #48]
	add	sp, sp, #64
	.cfi_def_cfa_offset 0
	.cfi_restore w30
	.cfi_restore w29
	ret
Ltmp3:
Lfunc_end0:
	.cfi_endproc

	.p2align	2
__ZN102_$LT$core..str..iter..CharIndices$u20$as$u20$core..iter..traits..double_ended..DoubleEndedIterator$GT$9next_back28_$u7b$$u7b$closure$u7d$$u7d$17h13bbd47e0a9f97fcE:
Lfunc_begin1:
	.loc	1 172 0
	.cfi_startproc
	sub	sp, sp, #144
	.cfi_def_cfa_offset 144
	str	x0, [sp, #8]
	str	x1, [sp, #16]
	str	w2, [sp, #44]
Ltmp5:
	.loc	1 173 25 prologue_end
	ldr	x8, [sp, #8]
	ldr	x8, [x8]
	.loc	1 173 45 is_stmt 0
	ldr	x9, [sp, #16]
	mov	x10, x9
	str	x10, [sp, #48]
Ltmp6:
	.file	2 "/rustc/c5d82ed7a4ad94a538bb87e5016e7d5ce0bd434b/library/core/src/slice/iter" "macros.rs"
	.loc	2 18 21 is_stmt 1
	ldr	x11, [x9]
	str	x11, [sp, #56]
	mov	w10, #1
Ltmp7:
	.file	3 "/rustc/c5d82ed7a4ad94a538bb87e5016e7d5ce0bd434b/library/core/src/mem" "mod.rs"
	.loc	3 309 5
	str	x10, [sp, #64]
Ltmp8:
	.loc	2 29 47
	ldr	x9, [x9, #8]
	str	x9, [sp, #72]
Ltmp9:
	.file	4 "/rustc/c5d82ed7a4ad94a538bb87e5016e7d5ce0bd434b/library/core/src/ptr" "const_ptr.rs"
	.loc	4 183 18
	str	x9, [sp, #80]
	ldr	x9, [sp, #80]
Ltmp10:
	.loc	2 29 65
	str	x11, [sp, #88]
Ltmp11:
	.file	5 "/rustc/c5d82ed7a4ad94a538bb87e5016e7d5ce0bd434b/library/core/src/ptr" "non_null.rs"
	.loc	5 335 9
	str	x11, [sp, #96]
Ltmp12:
	.file	6 "/rustc/c5d82ed7a4ad94a538bb87e5016e7d5ce0bd434b/library/core/src/ptr" "mut_ptr.rs"
	.loc	6 189 18
	str	x11, [sp, #104]
	ldr	x11, [sp, #104]
Ltmp13:
	.loc	2 29 33
	subs	x9, x9, x11
	str	x9, [sp, #112]
	ldr	x9, [sp, #112]
	str	x9, [sp, #120]
Ltmp14:
	.loc	2 35 22
	udiv	x9, x9, x10
	str	x9, [sp, #128]
	ldr	x9, [sp, #128]
Ltmp15:
	.loc	1 173 25
	add	x8, x8, x9
	str	x8, [sp, #136]
Ltmp16:
	.loc	1 174 13
	str	x8, [sp, #24]
	str	w2, [sp, #32]
Ltmp17:
	.loc	1 175 10
	ldr	x0, [sp, #24]
	ldr	w1, [sp, #32]
	add	sp, sp, #144
	.cfi_def_cfa_offset 0
	ret
Ltmp18:
Lfunc_end1:
	.cfi_endproc
	.file	7 "/rustc/c5d82ed7a4ad94a538bb87e5016e7d5ce0bd434b/library/core/src/slice" "iter.rs"

	.p2align	2
__ZN104_$LT$core..str..pattern..MultiCharEqSearcher$LT$C$GT$$u20$as$u20$core..str..pattern..ReverseSearcher$GT$9next_back17h5cb6daf4dcd8481eE:
Lfunc_begin2:
	.file	8 "/rustc/c5d82ed7a4ad94a538bb87e5016e7d5ce0bd434b/library/core/src/str" "pattern.rs"
	.loc	8 678 0
	.cfi_startproc
	sub	sp, sp, #320
	.cfi_def_cfa_offset 320
	stp	x28, x27, [sp, #288]
	stp	x29, x30, [sp, #304]
	add	x29, sp, #304
	.cfi_def_cfa w29, 16
	.cfi_offset w30, -8
	.cfi_offset w29, -16
	.cfi_offset w27, -24
	.cfi_offset w28, -32
	.cfi_remember_state
	str	x8, [sp, #16]
	mov	x8, x0
	str	x8, [sp, #24]
	mov	x0, x8
	str	x0, [sp, #56]
Ltmp19:
	.loc	8 679 17 prologue_end
	add	x0, x8, #16
	mov	x9, x0
	str	x9, [sp, #64]
Ltmp20:
	.loc	8 682 23
	add	x9, x8, #24
	str	x9, [sp, #72]
Ltmp21:
	.loc	2 18 21
	ldr	x10, [x8, #24]
	str	x10, [sp, #80]
	mov	w9, #1
Ltmp22:
	.loc	3 309 5
	str	x9, [sp, #88]
Ltmp23:
	.loc	2 29 47
	ldr	x8, [x8, #32]
	str	x8, [sp, #96]
Ltmp24:
	.loc	4 183 18
	str	x8, [sp, #104]
	ldr	x8, [sp, #104]
Ltmp25:
	.loc	2 29 65
	str	x10, [sp, #112]
Ltmp26:
	.loc	5 335 9
	str	x10, [sp, #120]
Ltmp27:
	.loc	6 189 18
	str	x10, [sp, #128]
	ldr	x10, [sp, #128]
Ltmp28:
	.loc	2 29 33
	subs	x8, x8, x10
	str	x8, [sp, #136]
	ldr	x8, [sp, #136]
	str	x8, [sp, #144]
Ltmp29:
	.loc	2 35 22
	udiv	x8, x8, x9
	str	x8, [sp, #152]
	ldr	x8, [sp, #152]
	str	x8, [sp, #32]
	stur	x8, [x29, #-144]
Ltmp30:
	.loc	8 683 31
	bl	__ZN102_$LT$core..str..iter..CharIndices$u20$as$u20$core..iter..traits..double_ended..DoubleEndedIterator$GT$9next_back17hb609eed01b429f43E
	str	x0, [sp, #40]
	str	w1, [sp, #48]
	.loc	8 683 16 is_stmt 0
	ldr	w8, [sp, #48]
	subs	w8, w8, #272, lsl #12
	cset	w8, eq
	and	w8, w8, #0x1
	ands	w8, w8, #0x1
	cset	x8, eq
	subs	x8, x8, #1
	cset	w8, ne
	tbnz	w8, #0, LBB2_2
	b	LBB2_1
LBB2_1:
	.loc	8 0 16
	ldr	x0, [sp, #24]
	ldr	x8, [sp, #32]
	.loc	8 683 22
	ldr	x9, [sp, #40]
	str	x9, [sp]
	stur	x9, [x29, #-136]
	.loc	8 683 25
	ldr	w1, [sp, #48]
	stur	w1, [x29, #-124]
	.loc	8 684 23 is_stmt 1
	add	x9, x0, #24
	stur	x9, [x29, #-120]
Ltmp31:
	.loc	2 18 21
	ldr	x11, [x0, #24]
	stur	x11, [x29, #-112]
	mov	w9, #1
	mov	x10, x9
Ltmp32:
	.loc	3 309 5
	stur	x10, [x29, #-104]
Ltmp33:
	.loc	2 29 47
	ldr	x9, [x0, #32]
	stur	x9, [x29, #-96]
Ltmp34:
	.loc	4 183 18
	stur	x9, [x29, #-88]
	ldur	x9, [x29, #-88]
Ltmp35:
	.loc	2 29 65
	stur	x11, [x29, #-80]
Ltmp36:
	.loc	5 335 9
	stur	x11, [x29, #-72]
Ltmp37:
	.loc	6 189 18
	stur	x11, [x29, #-64]
	ldur	x11, [x29, #-64]
Ltmp38:
	.loc	2 29 33
	subs	x9, x9, x11
	stur	x9, [x29, #-56]
	ldur	x9, [x29, #-56]
	stur	x9, [x29, #-48]
Ltmp39:
	.loc	2 35 22
	udiv	x9, x9, x10
	stur	x9, [x29, #-40]
	ldur	x9, [x29, #-40]
	stur	x9, [x29, #-32]
Ltmp40:
	.loc	8 685 28
	subs	x8, x8, x9
	str	x8, [sp, #8]
	stur	x8, [x29, #-24]
Ltmp41:
	.loc	8 686 16
	bl	__ZN53_$LT$F$u20$as$u20$core..str..pattern..MultiCharEq$GT$7matches17h52a7ada6a6ec3f2dE
	tbnz	w0, #0, LBB2_5
	b	LBB2_4
Ltmp42:
LBB2_2:
	.loc	8 0 16 is_stmt 0
	ldr	x9, [sp, #16]
	mov	w8, #2
	.loc	8 692 9 is_stmt 1
	str	x8, [x9]
Ltmp43:
	.loc	8 693 6
	b	LBB2_3
LBB2_3:
	.cfi_def_cfa wsp, 320
	ldp	x29, x30, [sp, #304]
	ldp	x28, x27, [sp, #288]
	add	sp, sp, #320
	.cfi_def_cfa_offset 0
	.cfi_restore w30
	.cfi_restore w29
	.cfi_restore w27
	.cfi_restore w28
	ret
LBB2_4:
	.cfi_restore_state
	.loc	8 0 6 is_stmt 0
	ldr	x9, [sp, #16]
	ldr	x10, [sp]
	ldr	x8, [sp, #8]
Ltmp44:
	.loc	8 689 46 is_stmt 1
	add	x8, x10, x8
	.loc	8 689 24 is_stmt 0
	str	x10, [x9, #8]
	str	x8, [x9, #16]
	mov	w8, #1
	str	x8, [x9]
	.loc	8 689 17
	b	LBB2_6
LBB2_5:
	.loc	8 0 17
	ldr	x8, [sp, #16]
	ldr	x10, [sp]
	ldr	x9, [sp, #8]
	.loc	8 687 45 is_stmt 1
	add	x9, x10, x9
	.loc	8 687 24 is_stmt 0
	str	x10, [x8, #8]
	str	x9, [x8, #16]
	str	xzr, [x8]
	.loc	8 687 17
	b	LBB2_6
Ltmp45:
LBB2_6:
	.loc	8 693 6 is_stmt 1
	b	LBB2_3
Ltmp46:
Lfunc_end2:
	.cfi_endproc

	.p2align	2
__ZN106_$LT$core..slice..iter..Iter$LT$T$GT$$u20$as$u20$core..iter..traits..double_ended..DoubleEndedIterator$GT$9next_back17h77c23898dd77267cE:
Lfunc_begin3:
	.loc	2 349 0
	.cfi_startproc
	sub	sp, sp, #192
	.cfi_def_cfa_offset 192
	stp	x29, x30, [sp, #176]
	add	x29, sp, #176
	.cfi_def_cfa w29, 16
	.cfi_offset w30, -8
	.cfi_offset w29, -16
	.cfi_remember_state
	str	x0, [sp, #8]
	mov	x8, x0
	str	x8, [sp, #48]
Ltmp47:
	.loc	2 357 29 prologue_end
	ldr	x0, [x0]
	str	x0, [sp, #64]
	bl	__ZN4core3ptr7mut_ptr31_$LT$impl$u20$$BP$mut$u20$T$GT$7is_null17he1e87271ae509351E
	mov	w8, #1
	.loc	2 358 24
	tbnz	w8, #0, LBB3_2
	b	LBB3_1
LBB3_1:
	.loc	2 0 24 is_stmt 0
	ldr	x9, [sp, #8]
	.loc	2 361 24 is_stmt 1
	ldr	x8, [x9]
	str	x8, [sp, #72]
	ldr	x9, [x9, #8]
	subs	x8, x8, x9
	cset	w8, eq
	tbnz	w8, #0, LBB3_4
	b	LBB3_3
LBB3_2:
	.loc	2 0 24 is_stmt 0
	ldr	x8, [sp, #8]
	.loc	2 359 33 is_stmt 1
	ldr	x0, [x8, #8]
	bl	__ZN4core3ptr9const_ptr33_$LT$impl$u20$$BP$const$u20$T$GT$7is_null17hba248d6a37fcefdaE
	.loc	2 358 21
	b	LBB3_1
LBB3_3:
	.loc	2 0 21 is_stmt 0
	ldr	x8, [sp, #8]
	.loc	2 364 30 is_stmt 1
	str	x8, [sp, #80]
	mov	w8, #0
Ltmp48:
	.loc	2 103 20
	tbnz	w8, #0, LBB3_7
	b	LBB3_6
Ltmp49:
LBB3_4:
	.loc	2 362 25
	str	xzr, [sp, #16]
	.loc	2 361 21
	b	LBB3_5
LBB3_5:
	.loc	2 367 14
	ldr	x0, [sp, #16]
	.cfi_def_cfa wsp, 192
	ldp	x29, x30, [sp, #176]
	add	sp, sp, #192
	.cfi_def_cfa_offset 0
	.cfi_restore w30
	.cfi_restore w29
	ret
LBB3_6:
	.cfi_restore_state
	.loc	2 0 14 is_stmt 0
	ldr	x8, [sp, #8]
Ltmp50:
	.loc	2 110 41 is_stmt 1
	ldr	x9, [x8, #8]
	stur	x9, [x29, #-24]
Ltmp51:
	.loc	4 1000 18
	stur	x9, [x29, #-16]
Ltmp52:
	.loc	4 456 18
	subs	x9, x9, #1
	stur	x9, [x29, #-8]
	ldur	x9, [x29, #-8]
Ltmp53:
	.loc	2 110 21
	str	x9, [x8, #8]
	.loc	2 111 21
	ldr	x8, [x8, #8]
	str	x8, [sp, #24]
	.loc	2 103 17
	b	LBB3_8
LBB3_7:
	.loc	2 0 17 is_stmt 0
	ldr	x8, [sp, #8]
	.loc	2 67 29 is_stmt 1
	ldr	x9, [x8, #8]
	str	x9, [sp, #88]
Ltmp54:
	.loc	4 1181 9
	stur	x9, [x29, #-80]
Ltmp55:
	.loc	4 50 9
	stur	x9, [x29, #-72]
Ltmp56:
	.loc	4 1163 9
	stur	x9, [x29, #-64]
Ltmp57:
	.loc	4 538 18
	subs	x9, x9, #1
	stur	x9, [x29, #-56]
	ldur	x9, [x29, #-56]
	stur	x9, [x29, #-48]
Ltmp58:
	.loc	4 89 29
	stur	x9, [x29, #-40]
Ltmp59:
	.file	9 "/rustc/c5d82ed7a4ad94a538bb87e5016e7d5ce0bd434b/library/core/src/ptr" "metadata.rs"
	.loc	9 118 36
	str	x9, [sp, #40]
	.loc	9 118 14 is_stmt 0
	ldr	x9, [sp, #40]
	str	x9, [sp, #32]
	ldr	x9, [sp, #32]
Ltmp60:
	.loc	2 67 17 is_stmt 1
	str	x9, [x8, #8]
	.loc	2 105 21
	ldr	x8, [x8]
	stur	x8, [x29, #-32]
	str	x8, [sp, #24]
	.loc	2 103 17
	b	LBB3_8
Ltmp61:
LBB3_8:
	.loc	2 364 30
	ldr	x8, [sp, #24]
	.loc	2 364 25 is_stmt 0
	str	x8, [sp, #16]
	.loc	2 361 21 is_stmt 1
	b	LBB3_5
Ltmp62:
Lfunc_end3:
	.cfi_endproc

	.p2align	2
__ZN106_$LT$core..str..pattern..CharPredicateSearcher$LT$F$GT$$u20$as$u20$core..str..pattern..ReverseSearcher$GT$16next_reject_back17h008c246757a3e829E:
Lfunc_begin4:
	.loc	8 771 0
	.cfi_startproc
	sub	sp, sp, #32
	.cfi_def_cfa_offset 32
	stp	x29, x30, [sp, #16]
	add	x29, sp, #16
	.cfi_def_cfa w29, 16
	.cfi_offset w30, -8
	.cfi_offset w29, -16
	mov	x9, x0
	str	x9, [sp, #8]
Ltmp63:
	.loc	8 772 13 prologue_end
	bl	__ZN4core3str7pattern15ReverseSearcher16next_reject_back17h6f3bcdf5a6bc8e29E
	.cfi_def_cfa wsp, 32
	.loc	8 773 10
	ldp	x29, x30, [sp, #16]
	add	sp, sp, #32
	.cfi_def_cfa_offset 0
	.cfi_restore w30
	.cfi_restore w29
	ret
Ltmp64:
Lfunc_end4:
	.cfi_endproc

	.p2align	2
__ZN119_$LT$core..ptr..non_null..NonNull$LT$T$GT$$u20$as$u20$core..convert..From$LT$core..ptr..unique..Unique$LT$T$GT$$GT$$GT$4from17h05778fac0a218259E:
Lfunc_begin5:
	.loc	5 774 0
	.cfi_startproc
	sub	sp, sp, #48
	.cfi_def_cfa_offset 48
	mov	x8, x0
	str	x8, [sp, #16]
Ltmp66:
	.loc	5 777 41 prologue_end
	mov	x8, x0
	str	x8, [sp, #24]
Ltmp67:
	.file	10 "/rustc/c5d82ed7a4ad94a538bb87e5016e7d5ce0bd434b/library/core/src/ptr" "unique.rs"
	.loc	10 104 9
	mov	x8, x0
	str	x8, [sp, #32]
Ltmp68:
	.loc	5 335 9
	mov	x8, x0
	str	x8, [sp, #40]
Ltmp69:
	.loc	5 201 13
	str	x0, [sp, #8]
Ltmp70:
	.loc	5 778 6
	ldr	x0, [sp, #8]
	add	sp, sp, #48
	.cfi_def_cfa_offset 0
	ret
Ltmp71:
Lfunc_end5:
	.cfi_endproc

	.p2align	2
__ZN3std10sys_common9backtrace28__rust_begin_short_backtrace17h7627e7901a496275E:
Lfunc_begin6:
	.file	11 "/rustc/c5d82ed7a4ad94a538bb87e5016e7d5ce0bd434b/library/std/src/sys_common" "backtrace.rs"
	.loc	11 117 0
	.cfi_startproc
	sub	sp, sp, #64
	.cfi_def_cfa_offset 64
	stp	x29, x30, [sp, #48]
	add	x29, sp, #48
	.cfi_def_cfa w29, 16
	.cfi_offset w30, -8
	.cfi_offset w29, -16
	mov	x8, x0
	str	x8, [sp, #16]
Ltmp72:
	.loc	11 121 18 prologue_end
	bl	__ZN4core3ops8function6FnOnce9call_once17he2ec09c901655e50E
Ltmp73:
	.file	12 "/rustc/c5d82ed7a4ad94a538bb87e5016e7d5ce0bd434b/library/core/src" "hint.rs"
	.loc	12 226 5
	; InlineAsm Start
	; InlineAsm End
	b	LBB6_1
Ltmp74:
LBB6_1:
	.cfi_def_cfa wsp, 64
	.loc	11 127 2
	ldp	x29, x30, [sp, #48]
	add	sp, sp, #64
	.cfi_def_cfa_offset 0
	.cfi_restore w30
	.cfi_restore w29
	ret
Ltmp75:
Lfunc_end6:
	.cfi_endproc

	.p2align	2
__ZN3std2io5error14repr_bitpacked11decode_repr17he96996698f47ee5dE:
Lfunc_begin7:
	.file	13 "/rustc/c5d82ed7a4ad94a538bb87e5016e7d5ce0bd434b/library/std/src/io/error" "repr_bitpacked.rs"
	.loc	13 246 0
	.cfi_startproc
	.cfi_personality 155, _rust_eh_personality
	.cfi_lsda 16, Lexception0
	sub	sp, sp, #320
	.cfi_def_cfa_offset 320
	stp	x28, x27, [sp, #288]
	stp	x29, x30, [sp, #304]
	add	x29, sp, #304
	.cfi_def_cfa w29, 16
	.cfi_offset w30, -8
	.cfi_offset w29, -16
	.cfi_offset w27, -24
	.cfi_offset w28, -32
	.cfi_remember_state
	str	x8, [sp, #40]
	str	x0, [sp, #48]
	str	x0, [sp, #120]
	mov	w8, #1
Ltmp85:
	.loc	13 250 9 prologue_end
	strb	w8, [sp, #103]
	.loc	13 250 16 is_stmt 0
	str	x0, [sp, #136]
Ltmp86:
	.loc	5 335 9 is_stmt 1
	str	x0, [sp, #144]
Ltmp87:
	.loc	6 189 18
	str	x0, [sp, #56]
	b	LBB7_1
Ltmp88:
LBB7_1:
	.loc	13 251 11
	ldr	x8, [sp, #56]
	and	x8, x8, #0x3
	.loc	13 251 5 is_stmt 0
	subs	x8, x8, #0
	str	x8, [sp, #32]
	subs	x8, x8, #3
	cset	w8, hi
	tbnz	w8, #0, LBB7_3
	.loc	13 0 5
	ldr	x11, [sp, #32]
	.loc	13 251 5
	adrp	x10, LJTI7_0@PAGE
	add	x10, x10, LJTI7_0@PAGEOFF
Ltmp89:
	adr	x8, Ltmp89
	ldrsw	x9, [x10, x11, lsl #2]
	add	x8, x8, x9
	br	x8
LBB7_3:
Ltmp82:
	.loc	13 0 5
	adrp	x0, l___unnamed_4@PAGE
	add	x0, x0, l___unnamed_4@PAGEOFF
	mov	w8, #40
	mov	x1, x8
	adrp	x2, l___unnamed_5@PAGE
	add	x2, x2, l___unnamed_5@PAGEOFF
	.loc	13 280 13 is_stmt 1
	bl	__ZN4core9panicking5panic17h77e4e51e80f61eb1E
Ltmp83:
	b	LBB7_10
LBB7_4:
	.loc	13 0 13 is_stmt 0
	ldr	x8, [sp, #40]
	.loc	13 253 26 is_stmt 1
	ldr	x9, [sp, #56]
	.loc	13 253 24 is_stmt 0
	asr	x9, x9, #32
	mov	x10, x9
	stur	w10, [x29, #-20]
Ltmp90:
	.loc	13 254 13 is_stmt 1
	str	w9, [x8, #4]
	strb	wzr, [x8]
Ltmp91:
	.loc	13 255 9
	b	LBB7_13
LBB7_5:
	.loc	13 257 30
	ldr	x8, [sp, #56]
	.loc	13 257 29 is_stmt 0
	lsr	x8, x8, #32
	mov	x0, x8
	stur	w8, [x29, #-28]
Ltmp78:
Ltmp92:
	.loc	13 258 24 is_stmt 1
	bl	__ZN3std2io5error14repr_bitpacked14kind_from_prim17h6a679c6b69b466a0E
	str	w0, [sp, #28]
Ltmp79:
	b	LBB7_14
Ltmp93:
LBB7_6:
	.loc	13 0 24 is_stmt 0
	ldr	x9, [sp, #40]
	ldr	x8, [sp, #48]
	.loc	13 270 58 is_stmt 1
	stur	x8, [x29, #-56]
Ltmp94:
	.loc	5 459 41
	stur	x8, [x29, #-48]
	stur	x8, [x29, #-40]
Ltmp95:
	.loc	5 201 13
	str	x8, [sp, #80]
Ltmp96:
	.loc	5 335 9
	ldr	x8, [sp, #80]
Ltmp97:
	.loc	13 270 31
	str	x8, [x9, #8]
	mov	w8, #2
	strb	w8, [x9]
	.loc	13 270 94 is_stmt 0
	b	LBB7_13
LBB7_7:
	.loc	13 0 94
	ldr	x8, [sp, #48]
	.loc	13 275 26 is_stmt 1
	stur	x8, [x29, #-136]
Ltmp98:
	.loc	5 335 9
	stur	x8, [x29, #-128]
Ltmp99:
	.loc	6 1283 9
	stur	x8, [x29, #-120]
Ltmp100:
	.loc	6 49 9
	stur	x8, [x29, #-112]
Ltmp101:
	.loc	6 1265 9
	stur	x8, [x29, #-104]
Ltmp102:
	.loc	6 551 18
	subs	x8, x8, #1
	stur	x8, [x29, #-96]
	ldur	x8, [x29, #-96]
	str	x8, [sp, #16]
	b	LBB7_11
Ltmp103:
LBB7_8:
	.loc	13 283 1
	ldrb	w8, [sp, #103]
	tbnz	w8, #0, LBB7_20
	b	LBB7_19
LBB7_9:
Ltmp84:
	.loc	13 0 1 is_stmt 0
	mov	x8, x1
	str	x0, [sp, #152]
	str	w8, [sp, #160]
	b	LBB7_8
LBB7_10:
	brk	#0x1
LBB7_11:
	ldr	x8, [sp, #16]
Ltmp104:
	.loc	6 551 18 is_stmt 1
	stur	x8, [x29, #-88]
Ltmp105:
	.loc	6 88 33
	stur	x8, [x29, #-80]
Ltmp106:
	.loc	9 135 36
	str	x8, [sp, #112]
	.loc	9 135 14 is_stmt 0
	ldr	x8, [sp, #112]
	str	x8, [sp, #104]
	ldr	x8, [sp, #104]
	stur	x8, [x29, #-72]
Ltmp107:
	.loc	6 49 9 is_stmt 1
	stur	x8, [x29, #-64]
Ltmp108:
	.loc	13 276 31
	strb	wzr, [sp, #103]
	str	x8, [sp, #88]
	ldr	x0, [sp, #88]
Ltmp76:
	bl	__ZN78_$LT$std..io..error..repr_bitpacked..Repr$u20$as$u20$core..ops..drop..Drop$GT$4drop28_$u7b$$u7b$closure$u7d$$u7d$17hc6eebccbdf279cadE
	str	x0, [sp, #8]
Ltmp77:
	b	LBB7_12
LBB7_12:
	.loc	13 0 31 is_stmt 0
	ldr	x9, [sp, #40]
	ldr	x8, [sp, #8]
	.loc	13 276 13
	str	x8, [x9, #8]
	mov	w8, #3
	strb	w8, [x9]
Ltmp109:
	.loc	13 277 9 is_stmt 1
	b	LBB7_13
Ltmp110:
LBB7_13:
	.loc	13 283 1
	ldrb	w8, [sp, #103]
	tbnz	w8, #0, LBB7_22
	b	LBB7_21
LBB7_14:
	.loc	13 0 1 is_stmt 0
	ldr	w8, [sp, #28]
Ltmp111:
	.loc	13 258 24 is_stmt 1
	strb	w8, [sp, #71]
	add	x8, sp, #56
	.loc	13 258 65 is_stmt 0
	str	x8, [sp, #72]
Ltmp112:
	.file	14 "/rustc/c5d82ed7a4ad94a538bb87e5016e7d5ce0bd434b/library/core/src" "option.rs"
	.loc	14 826 15 is_stmt 1
	ldrb	w8, [sp, #71]
	subs	w8, w8, #41
	cset	w8, eq
	and	w8, w8, #0x1
	ands	w8, w8, #0x1
	cset	x8, eq
	.loc	14 826 9 is_stmt 0
	subs	x8, x8, #0
	cset	w8, ne
	tbnz	w8, #0, LBB7_16
	b	LBB7_15
LBB7_15:
	.loc	14 828 21 is_stmt 1
	ldr	x0, [sp, #72]
Ltmp80:
	bl	__ZN3std2io5error14repr_bitpacked11decode_repr28_$u7b$$u7b$closure$u7d$$u7d$17h88535dc19da5925aE
	str	w0, [sp, #4]
Ltmp81:
	b	LBB7_18
LBB7_16:
	.loc	14 827 18
	ldrb	w8, [sp, #71]
	sturb	w8, [x29, #-21]
Ltmp113:
	.loc	14 827 24 is_stmt 0
	strb	w8, [sp, #70]
Ltmp114:
	.loc	14 827 24
	b	LBB7_17
Ltmp115:
LBB7_17:
	.loc	14 0 24
	ldr	x9, [sp, #40]
Ltmp116:
	.loc	13 268 31 is_stmt 1
	ldrb	w8, [sp, #70]
	.loc	13 268 13 is_stmt 0
	strb	w8, [x9, #1]
	mov	w8, #1
	strb	w8, [x9]
Ltmp117:
	.loc	13 269 9 is_stmt 1
	b	LBB7_13
LBB7_18:
	.loc	13 0 9 is_stmt 0
	ldr	w8, [sp, #4]
Ltmp118:
	.loc	14 828 21 is_stmt 1
	strb	w8, [sp, #70]
	.loc	14 828 23 is_stmt 0
	b	LBB7_17
Ltmp119:
LBB7_19:
	.loc	13 246 1 is_stmt 1
	ldr	x0, [sp, #152]
	bl	__Unwind_Resume
LBB7_20:
	.loc	13 283 1
	b	LBB7_19
LBB7_21:
	.cfi_def_cfa wsp, 320
	.loc	13 283 2 is_stmt 0
	ldp	x29, x30, [sp, #304]
	ldp	x28, x27, [sp, #288]
	add	sp, sp, #320
	.cfi_def_cfa_offset 0
	.cfi_restore w30
	.cfi_restore w29
	.cfi_restore w27
	.cfi_restore w28
	ret
LBB7_22:
	.cfi_restore_state
	.loc	13 283 1
	b	LBB7_21
Ltmp120:
Lfunc_end7:
	.cfi_endproc
	.section	__TEXT,__const
	.p2align	2
LJTI7_0:
	.long	LBB7_6-Ltmp89
	.long	LBB7_7-Ltmp89
	.long	LBB7_4-Ltmp89
	.long	LBB7_5-Ltmp89
	.section	__TEXT,__gcc_except_tab
	.p2align	2
GCC_except_table7:
Lexception0:
	.byte	255
	.byte	255
	.byte	1
	.uleb128 Lcst_end0-Lcst_begin0
Lcst_begin0:
	.uleb128 Ltmp82-Lfunc_begin7
	.uleb128 Ltmp81-Ltmp82
	.uleb128 Ltmp84-Lfunc_begin7
	.byte	0
	.uleb128 Ltmp81-Lfunc_begin7
	.uleb128 Lfunc_end7-Ltmp81
	.byte	0
	.byte	0
Lcst_end0:
	.p2align	2

	.section	__TEXT,__text,regular,pure_instructions
	.p2align	2
__ZN3std2io5error14repr_bitpacked11decode_repr28_$u7b$$u7b$closure$u7d$$u7d$17h88535dc19da5925aE:
Lfunc_begin8:
	.loc	13 258 0 is_stmt 1
	.cfi_startproc
	sub	sp, sp, #32
	.cfi_def_cfa_offset 32
	stp	x29, x30, [sp, #16]
	add	x29, sp, #16
	.cfi_def_cfa w29, 16
	.cfi_offset w30, -8
	.cfi_offset w29, -16
	str	x0, [sp]
Ltmp121:
	.loc	13 266 17 prologue_end
	bl	__ZN4core4hint21unreachable_unchecked17ha191291e9bea9d11E
Ltmp122:
Lfunc_end8:
	.cfi_endproc

	.p2align	2
__ZN3std2io5error14repr_bitpacked14kind_from_prim17h6a679c6b69b466a0E:
Lfunc_begin9:
	.loc	13 289 0
	.cfi_startproc
	sub	sp, sp, #352
	.cfi_def_cfa_offset 352
	stp	x28, x27, [sp, #336]
	.cfi_offset w27, -8
	.cfi_offset w28, -16
	.cfi_remember_state
	mov	x8, sp
	str	w0, [sp]
Ltmp123:
	.loc	13 302 5 prologue_end
	str	x8, [sp, #8]
	ldr	w8, [sp]
	subs	w8, w8, #0
	cset	w8, eq
	tbnz	w8, #0, LBB9_2
	b	LBB9_1
LBB9_1:
	.loc	13 0 5 is_stmt 0
	mov	x8, sp
	.loc	13 302 5
	str	x8, [sp, #16]
	ldr	w8, [sp]
	subs	w8, w8, #1
	cset	w8, eq
	tbnz	w8, #0, LBB9_5
	b	LBB9_4
LBB9_2:
Ltmp124:
	.loc	13 302 5
	strb	wzr, [sp, #7]
Ltmp125:
	.loc	13 302 5
	b	LBB9_3
LBB9_3:
	.loc	13 345 2 is_stmt 1
	ldrb	w0, [sp, #7]
	ldp	x28, x27, [sp, #336]
	add	sp, sp, #352
	.cfi_def_cfa_offset 0
	.cfi_restore w27
	.cfi_restore w28
	ret
LBB9_4:
	.cfi_restore_state
	.loc	13 0 2 is_stmt 0
	mov	x8, sp
	.loc	13 302 5 is_stmt 1
	str	x8, [sp, #24]
	ldr	w8, [sp]
	subs	w8, w8, #2
	cset	w8, eq
	tbnz	w8, #0, LBB9_7
	b	LBB9_6
LBB9_5:
	.loc	13 0 5 is_stmt 0
	mov	w8, #1
Ltmp126:
	.loc	13 302 5
	strb	w8, [sp, #7]
Ltmp127:
	.loc	13 302 5
	b	LBB9_3
LBB9_6:
	.loc	13 0 5
	mov	x8, sp
	.loc	13 302 5
	str	x8, [sp, #32]
	ldr	w8, [sp]
	subs	w8, w8, #3
	cset	w8, eq
	tbnz	w8, #0, LBB9_9
	b	LBB9_8
LBB9_7:
	.loc	13 0 5
	mov	w8, #2
Ltmp128:
	.loc	13 302 5
	strb	w8, [sp, #7]
Ltmp129:
	.loc	13 302 5
	b	LBB9_3
LBB9_8:
	.loc	13 0 5
	mov	x8, sp
	.loc	13 302 5
	str	x8, [sp, #40]
	ldr	w8, [sp]
	subs	w8, w8, #4
	cset	w8, eq
	tbnz	w8, #0, LBB9_11
	b	LBB9_10
LBB9_9:
	.loc	13 0 5
	mov	w8, #3
Ltmp130:
	.loc	13 302 5
	strb	w8, [sp, #7]
Ltmp131:
	.loc	13 302 5
	b	LBB9_3
LBB9_10:
	.loc	13 0 5
	mov	x8, sp
	.loc	13 302 5
	str	x8, [sp, #48]
	ldr	w8, [sp]
	subs	w8, w8, #5
	cset	w8, eq
	tbnz	w8, #0, LBB9_13
	b	LBB9_12
LBB9_11:
	.loc	13 0 5
	mov	w8, #4
Ltmp132:
	.loc	13 302 5
	strb	w8, [sp, #7]
Ltmp133:
	.loc	13 302 5
	b	LBB9_3
LBB9_12:
	.loc	13 0 5
	mov	x8, sp
	.loc	13 302 5
	str	x8, [sp, #56]
	ldr	w8, [sp]
	subs	w8, w8, #6
	cset	w8, eq
	tbnz	w8, #0, LBB9_15
	b	LBB9_14
LBB9_13:
	.loc	13 0 5
	mov	w8, #5
Ltmp134:
	.loc	13 302 5
	strb	w8, [sp, #7]
Ltmp135:
	.loc	13 302 5
	b	LBB9_3
LBB9_14:
	.loc	13 0 5
	mov	x8, sp
	.loc	13 302 5
	str	x8, [sp, #64]
	ldr	w8, [sp]
	subs	w8, w8, #7
	cset	w8, eq
	tbnz	w8, #0, LBB9_17
	b	LBB9_16
LBB9_15:
	.loc	13 0 5
	mov	w8, #6
Ltmp136:
	.loc	13 302 5
	strb	w8, [sp, #7]
Ltmp137:
	.loc	13 302 5
	b	LBB9_3
LBB9_16:
	.loc	13 0 5
	mov	x8, sp
	.loc	13 302 5
	str	x8, [sp, #72]
	ldr	w8, [sp]
	subs	w8, w8, #8
	cset	w8, eq
	tbnz	w8, #0, LBB9_19
	b	LBB9_18
LBB9_17:
	.loc	13 0 5
	mov	w8, #7
Ltmp138:
	.loc	13 302 5
	strb	w8, [sp, #7]
Ltmp139:
	.loc	13 302 5
	b	LBB9_3
LBB9_18:
	.loc	13 0 5
	mov	x8, sp
	.loc	13 302 5
	str	x8, [sp, #80]
	ldr	w8, [sp]
	subs	w8, w8, #9
	cset	w8, eq
	tbnz	w8, #0, LBB9_21
	b	LBB9_20
LBB9_19:
	.loc	13 0 5
	mov	w8, #8
Ltmp140:
	.loc	13 302 5
	strb	w8, [sp, #7]
Ltmp141:
	.loc	13 302 5
	b	LBB9_3
LBB9_20:
	.loc	13 0 5
	mov	x8, sp
	.loc	13 302 5
	str	x8, [sp, #88]
	ldr	w8, [sp]
	subs	w8, w8, #10
	cset	w8, eq
	tbnz	w8, #0, LBB9_23
	b	LBB9_22
LBB9_21:
	.loc	13 0 5
	mov	w8, #9
Ltmp142:
	.loc	13 302 5
	strb	w8, [sp, #7]
Ltmp143:
	.loc	13 302 5
	b	LBB9_3
LBB9_22:
	.loc	13 0 5
	mov	x8, sp
	.loc	13 302 5
	str	x8, [sp, #96]
	ldr	w8, [sp]
	subs	w8, w8, #11
	cset	w8, eq
	tbnz	w8, #0, LBB9_25
	b	LBB9_24
LBB9_23:
	.loc	13 0 5
	mov	w8, #10
Ltmp144:
	.loc	13 302 5
	strb	w8, [sp, #7]
Ltmp145:
	.loc	13 302 5
	b	LBB9_3
LBB9_24:
	.loc	13 0 5
	mov	x8, sp
	.loc	13 302 5
	str	x8, [sp, #104]
	ldr	w8, [sp]
	subs	w8, w8, #12
	cset	w8, eq
	tbnz	w8, #0, LBB9_27
	b	LBB9_26
LBB9_25:
	.loc	13 0 5
	mov	w8, #11
Ltmp146:
	.loc	13 302 5
	strb	w8, [sp, #7]
Ltmp147:
	.loc	13 302 5
	b	LBB9_3
LBB9_26:
	.loc	13 0 5
	mov	x8, sp
	.loc	13 302 5
	str	x8, [sp, #112]
	ldr	w8, [sp]
	subs	w8, w8, #13
	cset	w8, eq
	tbnz	w8, #0, LBB9_29
	b	LBB9_28
LBB9_27:
	.loc	13 0 5
	mov	w8, #12
Ltmp148:
	.loc	13 302 5
	strb	w8, [sp, #7]
Ltmp149:
	.loc	13 302 5
	b	LBB9_3
LBB9_28:
	.loc	13 0 5
	mov	x8, sp
	.loc	13 302 5
	str	x8, [sp, #120]
	ldr	w8, [sp]
	subs	w8, w8, #14
	cset	w8, eq
	tbnz	w8, #0, LBB9_31
	b	LBB9_30
LBB9_29:
	.loc	13 0 5
	mov	w8, #13
Ltmp150:
	.loc	13 302 5
	strb	w8, [sp, #7]
Ltmp151:
	.loc	13 302 5
	b	LBB9_3
LBB9_30:
	.loc	13 0 5
	mov	x8, sp
	.loc	13 302 5
	str	x8, [sp, #128]
	ldr	w8, [sp]
	subs	w8, w8, #15
	cset	w8, eq
	tbnz	w8, #0, LBB9_33
	b	LBB9_32
LBB9_31:
	.loc	13 0 5
	mov	w8, #14
Ltmp152:
	.loc	13 302 5
	strb	w8, [sp, #7]
Ltmp153:
	.loc	13 302 5
	b	LBB9_3
LBB9_32:
	.loc	13 0 5
	mov	x8, sp
	.loc	13 302 5
	str	x8, [sp, #136]
	ldr	w8, [sp]
	subs	w8, w8, #16
	cset	w8, eq
	tbnz	w8, #0, LBB9_35
	b	LBB9_34
LBB9_33:
	.loc	13 0 5
	mov	w8, #15
Ltmp154:
	.loc	13 302 5
	strb	w8, [sp, #7]
Ltmp155:
	.loc	13 302 5
	b	LBB9_3
LBB9_34:
	.loc	13 0 5
	mov	x8, sp
	.loc	13 302 5
	str	x8, [sp, #144]
	ldr	w8, [sp]
	subs	w8, w8, #17
	cset	w8, eq
	tbnz	w8, #0, LBB9_37
	b	LBB9_36
LBB9_35:
	.loc	13 0 5
	mov	w8, #16
Ltmp156:
	.loc	13 302 5
	strb	w8, [sp, #7]
Ltmp157:
	.loc	13 302 5
	b	LBB9_3
LBB9_36:
	.loc	13 0 5
	mov	x8, sp
	.loc	13 302 5
	str	x8, [sp, #152]
	ldr	w8, [sp]
	subs	w8, w8, #18
	cset	w8, eq
	tbnz	w8, #0, LBB9_39
	b	LBB9_38
LBB9_37:
	.loc	13 0 5
	mov	w8, #17
Ltmp158:
	.loc	13 302 5
	strb	w8, [sp, #7]
Ltmp159:
	.loc	13 302 5
	b	LBB9_3
LBB9_38:
	.loc	13 0 5
	mov	x8, sp
	.loc	13 302 5
	str	x8, [sp, #160]
	ldr	w8, [sp]
	subs	w8, w8, #19
	cset	w8, eq
	tbnz	w8, #0, LBB9_41
	b	LBB9_40
LBB9_39:
	.loc	13 0 5
	mov	w8, #18
Ltmp160:
	.loc	13 302 5
	strb	w8, [sp, #7]
Ltmp161:
	.loc	13 302 5
	b	LBB9_3
LBB9_40:
	.loc	13 0 5
	mov	x8, sp
	.loc	13 302 5
	str	x8, [sp, #168]
	ldr	w8, [sp]
	subs	w8, w8, #20
	cset	w8, eq
	tbnz	w8, #0, LBB9_43
	b	LBB9_42
LBB9_41:
	.loc	13 0 5
	mov	w8, #19
Ltmp162:
	.loc	13 302 5
	strb	w8, [sp, #7]
Ltmp163:
	.loc	13 302 5
	b	LBB9_3
LBB9_42:
	.loc	13 0 5
	mov	x8, sp
	.loc	13 302 5
	str	x8, [sp, #176]
	ldr	w8, [sp]
	subs	w8, w8, #21
	cset	w8, eq
	tbnz	w8, #0, LBB9_45
	b	LBB9_44
LBB9_43:
	.loc	13 0 5
	mov	w8, #20
Ltmp164:
	.loc	13 302 5
	strb	w8, [sp, #7]
Ltmp165:
	.loc	13 302 5
	b	LBB9_3
LBB9_44:
	.loc	13 0 5
	mov	x8, sp
	.loc	13 302 5
	str	x8, [sp, #184]
	ldr	w8, [sp]
	subs	w8, w8, #22
	cset	w8, eq
	tbnz	w8, #0, LBB9_47
	b	LBB9_46
LBB9_45:
	.loc	13 0 5
	mov	w8, #21
Ltmp166:
	.loc	13 302 5
	strb	w8, [sp, #7]
Ltmp167:
	.loc	13 302 5
	b	LBB9_3
LBB9_46:
	.loc	13 0 5
	mov	x8, sp
	.loc	13 302 5
	str	x8, [sp, #192]
	ldr	w8, [sp]
	subs	w8, w8, #23
	cset	w8, eq
	tbnz	w8, #0, LBB9_49
	b	LBB9_48
LBB9_47:
	.loc	13 0 5
	mov	w8, #22
Ltmp168:
	.loc	13 302 5
	strb	w8, [sp, #7]
Ltmp169:
	.loc	13 302 5
	b	LBB9_3
LBB9_48:
	.loc	13 0 5
	mov	x8, sp
	.loc	13 302 5
	str	x8, [sp, #200]
	ldr	w8, [sp]
	subs	w8, w8, #24
	cset	w8, eq
	tbnz	w8, #0, LBB9_51
	b	LBB9_50
LBB9_49:
	.loc	13 0 5
	mov	w8, #23
Ltmp170:
	.loc	13 302 5
	strb	w8, [sp, #7]
Ltmp171:
	.loc	13 302 5
	b	LBB9_3
LBB9_50:
	.loc	13 0 5
	mov	x8, sp
	.loc	13 302 5
	str	x8, [sp, #208]
	ldr	w8, [sp]
	subs	w8, w8, #25
	cset	w8, eq
	tbnz	w8, #0, LBB9_53
	b	LBB9_52
LBB9_51:
	.loc	13 0 5
	mov	w8, #24
Ltmp172:
	.loc	13 302 5
	strb	w8, [sp, #7]
Ltmp173:
	.loc	13 302 5
	b	LBB9_3
LBB9_52:
	.loc	13 0 5
	mov	x8, sp
	.loc	13 302 5
	str	x8, [sp, #216]
	ldr	w8, [sp]
	subs	w8, w8, #26
	cset	w8, eq
	tbnz	w8, #0, LBB9_55
	b	LBB9_54
LBB9_53:
	.loc	13 0 5
	mov	w8, #25
Ltmp174:
	.loc	13 302 5
	strb	w8, [sp, #7]
Ltmp175:
	.loc	13 302 5
	b	LBB9_3
LBB9_54:
	.loc	13 0 5
	mov	x8, sp
	.loc	13 302 5
	str	x8, [sp, #224]
	ldr	w8, [sp]
	subs	w8, w8, #27
	cset	w8, eq
	tbnz	w8, #0, LBB9_57
	b	LBB9_56
LBB9_55:
	.loc	13 0 5
	mov	w8, #26
Ltmp176:
	.loc	13 302 5
	strb	w8, [sp, #7]
Ltmp177:
	.loc	13 302 5
	b	LBB9_3
LBB9_56:
	.loc	13 0 5
	mov	x8, sp
	.loc	13 302 5
	str	x8, [sp, #232]
	ldr	w8, [sp]
	subs	w8, w8, #28
	cset	w8, eq
	tbnz	w8, #0, LBB9_59
	b	LBB9_58
LBB9_57:
	.loc	13 0 5
	mov	w8, #27
Ltmp178:
	.loc	13 302 5
	strb	w8, [sp, #7]
Ltmp179:
	.loc	13 302 5
	b	LBB9_3
LBB9_58:
	.loc	13 0 5
	mov	x8, sp
	.loc	13 302 5
	str	x8, [sp, #240]
	ldr	w8, [sp]
	subs	w8, w8, #29
	cset	w8, eq
	tbnz	w8, #0, LBB9_61
	b	LBB9_60
LBB9_59:
	.loc	13 0 5
	mov	w8, #28
Ltmp180:
	.loc	13 302 5
	strb	w8, [sp, #7]
Ltmp181:
	.loc	13 302 5
	b	LBB9_3
LBB9_60:
	.loc	13 0 5
	mov	x8, sp
	.loc	13 302 5
	str	x8, [sp, #248]
	ldr	w8, [sp]
	subs	w8, w8, #30
	cset	w8, eq
	tbnz	w8, #0, LBB9_63
	b	LBB9_62
LBB9_61:
	.loc	13 0 5
	mov	w8, #29
Ltmp182:
	.loc	13 302 5
	strb	w8, [sp, #7]
Ltmp183:
	.loc	13 302 5
	b	LBB9_3
LBB9_62:
	.loc	13 0 5
	mov	x8, sp
	.loc	13 302 5
	str	x8, [sp, #256]
	ldr	w8, [sp]
	subs	w8, w8, #31
	cset	w8, eq
	tbnz	w8, #0, LBB9_65
	b	LBB9_64
LBB9_63:
	.loc	13 0 5
	mov	w8, #30
Ltmp184:
	.loc	13 302 5
	strb	w8, [sp, #7]
Ltmp185:
	.loc	13 302 5
	b	LBB9_3
LBB9_64:
	.loc	13 0 5
	mov	x8, sp
	.loc	13 302 5
	str	x8, [sp, #264]
	ldr	w8, [sp]
	subs	w8, w8, #32
	cset	w8, eq
	tbnz	w8, #0, LBB9_67
	b	LBB9_66
LBB9_65:
	.loc	13 0 5
	mov	w8, #31
Ltmp186:
	.loc	13 302 5
	strb	w8, [sp, #7]
Ltmp187:
	.loc	13 302 5
	b	LBB9_3
LBB9_66:
	.loc	13 0 5
	mov	x8, sp
	.loc	13 302 5
	str	x8, [sp, #272]
	ldr	w8, [sp]
	subs	w8, w8, #33
	cset	w8, eq
	tbnz	w8, #0, LBB9_69
	b	LBB9_68
LBB9_67:
	.loc	13 0 5
	mov	w8, #32
Ltmp188:
	.loc	13 302 5
	strb	w8, [sp, #7]
Ltmp189:
	.loc	13 302 5
	b	LBB9_3
LBB9_68:
	.loc	13 0 5
	mov	x8, sp
	.loc	13 302 5
	str	x8, [sp, #280]
	ldr	w8, [sp]
	subs	w8, w8, #34
	cset	w8, eq
	tbnz	w8, #0, LBB9_71
	b	LBB9_70
LBB9_69:
	.loc	13 0 5
	mov	w8, #33
Ltmp190:
	.loc	13 302 5
	strb	w8, [sp, #7]
Ltmp191:
	.loc	13 302 5
	b	LBB9_3
LBB9_70:
	.loc	13 0 5
	mov	x8, sp
	.loc	13 302 5
	str	x8, [sp, #288]
	ldr	w8, [sp]
	subs	w8, w8, #35
	cset	w8, eq
	tbnz	w8, #0, LBB9_73
	b	LBB9_72
LBB9_71:
	.loc	13 0 5
	mov	w8, #34
Ltmp192:
	.loc	13 302 5
	strb	w8, [sp, #7]
Ltmp193:
	.loc	13 302 5
	b	LBB9_3
LBB9_72:
	.loc	13 0 5
	mov	x8, sp
	.loc	13 302 5
	str	x8, [sp, #296]
	ldr	w8, [sp]
	subs	w8, w8, #39
	cset	w8, eq
	tbnz	w8, #0, LBB9_75
	b	LBB9_74
LBB9_73:
	.loc	13 0 5
	mov	w8, #35
Ltmp194:
	.loc	13 302 5
	strb	w8, [sp, #7]
Ltmp195:
	.loc	13 302 5
	b	LBB9_3
LBB9_74:
	.loc	13 0 5
	mov	x8, sp
	.loc	13 302 5
	str	x8, [sp, #304]
	ldr	w8, [sp]
	subs	w8, w8, #37
	cset	w8, eq
	tbnz	w8, #0, LBB9_77
	b	LBB9_76
LBB9_75:
	.loc	13 0 5
	mov	w8, #39
Ltmp196:
	.loc	13 302 5
	strb	w8, [sp, #7]
Ltmp197:
	.loc	13 302 5
	b	LBB9_3
LBB9_76:
	.loc	13 0 5
	mov	x8, sp
	.loc	13 302 5
	str	x8, [sp, #312]
	ldr	w8, [sp]
	subs	w8, w8, #36
	cset	w8, eq
	tbnz	w8, #0, LBB9_79
	b	LBB9_78
LBB9_77:
	.loc	13 0 5
	mov	w8, #37
Ltmp198:
	.loc	13 302 5
	strb	w8, [sp, #7]
Ltmp199:
	.loc	13 302 5
	b	LBB9_3
LBB9_78:
	.loc	13 0 5
	mov	x8, sp
	.loc	13 302 5
	str	x8, [sp, #320]
	ldr	w8, [sp]
	subs	w8, w8, #38
	cset	w8, eq
	tbnz	w8, #0, LBB9_81
	b	LBB9_80
LBB9_79:
	.loc	13 0 5
	mov	w8, #36
Ltmp200:
	.loc	13 302 5
	strb	w8, [sp, #7]
Ltmp201:
	.loc	13 302 5
	b	LBB9_3
LBB9_80:
	.loc	13 0 5
	mov	x8, sp
	.loc	13 302 5
	str	x8, [sp, #328]
	ldr	w8, [sp]
	subs	w8, w8, #40
	cset	w8, eq
	tbnz	w8, #0, LBB9_83
	b	LBB9_82
LBB9_81:
	.loc	13 0 5
	mov	w8, #38
Ltmp202:
	.loc	13 302 5
	strb	w8, [sp, #7]
Ltmp203:
	.loc	13 302 5
	b	LBB9_3
LBB9_82:
	.loc	13 0 5
	mov	w8, #41
	.loc	13 302 5
	strb	w8, [sp, #7]
	b	LBB9_3
LBB9_83:
	.loc	13 0 5
	mov	w8, #40
Ltmp204:
	.loc	13 302 5
	strb	w8, [sp, #7]
Ltmp205:
	.loc	13 302 5
	b	LBB9_3
Ltmp206:
Lfunc_end9:
	.cfi_endproc

	.private_extern	__ZN3std2rt10lang_start17h77f7406a07e4a2bcE
	.globl	__ZN3std2rt10lang_start17h77f7406a07e4a2bcE
	.p2align	2
__ZN3std2rt10lang_start17h77f7406a07e4a2bcE:
Lfunc_begin10:
	.file	15 "/rustc/c5d82ed7a4ad94a538bb87e5016e7d5ce0bd434b/library/std/src" "rt.rs"
	.loc	15 159 0 is_stmt 1
	.cfi_startproc
	sub	sp, sp, #96
	.cfi_def_cfa_offset 96
	stp	x29, x30, [sp, #80]
	add	x29, sp, #80
	.cfi_def_cfa w29, 16
	.cfi_offset w30, -8
	.cfi_offset w29, -16
	mov	x8, x0
	str	x1, [sp, #8]
	mov	x0, x2
	ldr	x2, [sp, #8]
	str	x0, [sp, #16]
	mov	x4, x3
	ldr	x3, [sp, #16]
	mov	x0, x8
	str	x0, [sp, #40]
	stur	x2, [x29, #-32]
	mov	x9, x3
	stur	x9, [x29, #-24]
	sturb	w4, [x29, #-9]
	add	x0, sp, #32
Ltmp207:
	.loc	15 166 10 prologue_end
	str	x8, [sp, #32]
	adrp	x1, l___unnamed_1@PAGE
	add	x1, x1, l___unnamed_1@PAGEOFF
	.loc	15 165 17
	bl	__ZN3std2rt19lang_start_internal17h500c8f49a00466a3E
	str	x0, [sp, #24]
	.loc	15 165 12 is_stmt 0
	ldr	x0, [sp, #24]
	stur	x0, [x29, #-8]
	.cfi_def_cfa wsp, 96
	.loc	15 172 2 is_stmt 1
	ldp	x29, x30, [sp, #80]
	add	sp, sp, #96
	.cfi_def_cfa_offset 0
	.cfi_restore w30
	.cfi_restore w29
	ret
Ltmp208:
Lfunc_end10:
	.cfi_endproc

	.p2align	2
__ZN3std2rt10lang_start28_$u7b$$u7b$closure$u7d$$u7d$17h4e595feacafca2cfE:
Lfunc_begin11:
	.loc	15 166 0
	.cfi_startproc
	sub	sp, sp, #48
	.cfi_def_cfa_offset 48
	stp	x29, x30, [sp, #32]
	add	x29, sp, #32
	.cfi_def_cfa w29, 16
	.cfi_offset w30, -8
	.cfi_offset w29, -16
	mov	x8, x0
	str	x8, [sp, #16]
Ltmp209:
	.loc	15 166 77 prologue_end
	ldr	x0, [x0]
	.loc	15 166 18 is_stmt 0
	bl	__ZN3std10sys_common9backtrace28__rust_begin_short_backtrace17h7627e7901a496275E
	bl	__ZN54_$LT$$LP$$RP$$u20$as$u20$std..process..Termination$GT$6report17h80840be4f0116ebaE
	add	x8, sp, #15
	strb	w0, [sp, #15]
Ltmp210:
	.file	16 "/rustc/c5d82ed7a4ad94a538bb87e5016e7d5ce0bd434b/library/std/src" "process.rs"
	.loc	16 1809 9 is_stmt 1
	stur	x8, [x29, #-8]
Ltmp211:
	.file	17 "/rustc/c5d82ed7a4ad94a538bb87e5016e7d5ce0bd434b/library/std/src/sys/unix/process" "process_common.rs"
	.loc	17 541 9
	ldrb	w0, [sp, #15]
Ltmp212:
	.cfi_def_cfa wsp, 48
	.loc	15 166 100
	ldp	x29, x30, [sp, #32]
	add	sp, sp, #48
	.cfi_def_cfa_offset 0
	.cfi_restore w30
	.cfi_restore w29
	ret
Ltmp213:
Lfunc_end11:
	.cfi_endproc

	.p2align	2
__ZN49_$LT$F$u20$as$u20$core..str..pattern..Pattern$GT$13into_searcher17haeeb0b9f05273ff3E:
Lfunc_begin12:
	.loc	8 705 0
	.cfi_startproc
	sub	sp, sp, #96
	.cfi_def_cfa_offset 96
	stp	x29, x30, [sp, #80]
	add	x29, sp, #80
	.cfi_def_cfa w29, 16
	.cfi_offset w30, -8
	.cfi_offset w29, -16
	str	x8, [sp]
	mov	x8, x0
	stur	x8, [x29, #-16]
	stur	x1, [x29, #-8]
	add	x8, sp, #16
	str	x8, [sp, #8]
Ltmp214:
	.loc	8 706 21 prologue_end
	bl	__ZN95_$LT$core..str..pattern..MultiCharEqPattern$LT$C$GT$$u20$as$u20$core..str..pattern..Pattern$GT$13into_searcher17hb12913be236c4a8dE
	ldr	x0, [sp]
	ldr	x1, [sp, #8]
	mov	w8, #40
	mov	x2, x8
	.loc	8 706 13 is_stmt 0
	bl	_memcpy
	.cfi_def_cfa wsp, 96
	.loc	8 707 10 is_stmt 1
	ldp	x29, x30, [sp, #80]
	add	sp, sp, #96
	.cfi_def_cfa_offset 0
	.cfi_restore w30
	.cfi_restore w29
	ret
Ltmp215:
Lfunc_end12:
	.cfi_endproc

	.p2align	2
__ZN4core3fmt10ArgumentV111new_display17hd9502b70d4cb1d1cE:
Lfunc_begin13:
	.file	18 "/rustc/c5d82ed7a4ad94a538bb87e5016e7d5ce0bd434b/library/core/src/fmt" "mod.rs"
	.loc	18 322 0
	.cfi_startproc
	sub	sp, sp, #64
	.cfi_def_cfa_offset 64
	mov	x8, x0
	str	x8, [sp, #24]
Ltmp217:
	.loc	18 323 23 prologue_end
	mov	x8, x0
	str	x8, [sp, #32]
	adrp	x8, __ZN4core3fmt3num3imp52_$LT$impl$u20$core..fmt..Display$u20$for$u20$i32$GT$3fmt17h550641ce42ca7692E@GOTPAGE
	ldr	x8, [x8, __ZN4core3fmt3num3imp52_$LT$impl$u20$core..fmt..Display$u20$for$u20$i32$GT$3fmt17h550641ce42ca7692E@GOTPAGEOFF]
	.loc	18 323 26 is_stmt 0
	mov	x9, x8
	str	x9, [sp, #40]
Ltmp218:
	.loc	18 342 42 is_stmt 1
	str	x8, [sp, #48]
	ldr	x8, [sp, #48]
	.loc	18 342 68 is_stmt 0
	str	x0, [sp, #56]
	ldr	x9, [sp, #56]
	.loc	18 342 18
	str	x9, [sp, #8]
	str	x8, [sp, #16]
Ltmp219:
	.loc	18 324 10 is_stmt 1
	ldr	x0, [sp, #8]
	ldr	x1, [sp, #16]
	add	sp, sp, #64
	.cfi_def_cfa_offset 0
	ret
Ltmp220:
Lfunc_end13:
	.cfi_endproc

	.p2align	2
__ZN4core3fmt9Arguments6new_v117h681e5db68844b188E:
Lfunc_begin14:
	.loc	18 394 0
	.cfi_startproc
	sub	sp, sp, #176
	.cfi_def_cfa_offset 176
	stp	x29, x30, [sp, #160]
	add	x29, sp, #160
	.cfi_def_cfa w29, 16
	.cfi_offset w30, -8
	.cfi_offset w29, -16
	.cfi_remember_state
	str	x8, [sp, #16]
	str	x0, [sp, #24]
	str	x1, [sp, #32]
	str	x2, [sp, #40]
	str	x3, [sp, #48]
	stur	x0, [x29, #-32]
	stur	x1, [x29, #-24]
	stur	x2, [x29, #-16]
	stur	x3, [x29, #-8]
Ltmp221:
	.loc	18 395 12 prologue_end
	subs	x8, x1, x3
	cset	w8, lo
	tbnz	w8, #0, LBB14_2
	b	LBB14_1
LBB14_1:
	.loc	18 0 12 is_stmt 0
	ldr	x8, [sp, #32]
	ldr	x9, [sp, #48]
	.loc	18 395 56
	add	x9, x9, #1
	.loc	18 395 41
	subs	x8, x8, x9
	cset	w8, hi
	.loc	18 395 12
	and	w8, w8, #0x1
	strb	w8, [sp, #63]
	b	LBB14_3
LBB14_2:
	.loc	18 0 12
	mov	w8, #1
	.loc	18 395 12
	strb	w8, [sp, #63]
	b	LBB14_3
LBB14_3:
	ldrb	w8, [sp, #63]
	tbnz	w8, #0, LBB14_5
	b	LBB14_4
LBB14_4:
	.loc	18 0 12
	ldr	x8, [sp, #48]
	ldr	x9, [sp, #16]
	ldr	x10, [sp, #40]
	ldr	x11, [sp, #32]
	ldr	x12, [sp, #24]
	.loc	18 398 34 is_stmt 1
	stur	xzr, [x29, #-48]
	.loc	18 398 9 is_stmt 0
	str	x12, [x9]
	str	x11, [x9, #8]
	ldur	x12, [x29, #-48]
	ldur	x11, [x29, #-40]
	str	x12, [x9, #16]
	str	x11, [x9, #24]
	str	x10, [x9, #32]
	str	x8, [x9, #40]
	.cfi_def_cfa wsp, 176
	.loc	18 399 6 is_stmt 1
	ldp	x29, x30, [sp, #160]
	add	sp, sp, #176
	.cfi_def_cfa_offset 0
	.cfi_restore w30
	.cfi_restore w29
	ret
LBB14_5:
	.cfi_restore_state
	.loc	18 0 6 is_stmt 0
	add	x8, sp, #64
	str	x8, [sp, #8]
	adrp	x0, l___unnamed_6@PAGE
	add	x0, x0, l___unnamed_6@PAGEOFF
	mov	w9, #1
	mov	x1, x9
	adrp	x2, l___unnamed_7@PAGE
	add	x2, x2, l___unnamed_7@PAGEOFF
	mov	x3, #0
	.loc	18 396 13 is_stmt 1
	bl	__ZN4core3fmt9Arguments6new_v117h681e5db68844b188E
	ldr	x0, [sp, #8]
	adrp	x1, l___unnamed_8@PAGE
	add	x1, x1, l___unnamed_8@PAGEOFF
	bl	__ZN4core9panicking9panic_fmt17h5632cf01ed745570E
Ltmp222:
Lfunc_end14:
	.cfi_endproc

	.p2align	2
__ZN4core3ops8function6FnOnce40call_once$u7b$$u7b$vtable.shim$u7d$$u7d$17h677577484515a2abE:
Lfunc_begin15:
	.file	19 "/rustc/c5d82ed7a4ad94a538bb87e5016e7d5ce0bd434b/library/core/src/ops" "function.rs"
	.loc	19 507 0
	.cfi_startproc
	sub	sp, sp, #32
	.cfi_def_cfa_offset 32
	stp	x29, x30, [sp, #16]
	add	x29, sp, #16
	.cfi_def_cfa w29, 16
	.cfi_offset w30, -8
	.cfi_offset w29, -16
	mov	x8, x0
	str	x8, [sp, #8]
Ltmp223:
	.loc	19 507 5 prologue_end
	ldr	x0, [x0]
	bl	__ZN4core3ops8function6FnOnce9call_once17hf02b68735dabd517E
	.cfi_def_cfa wsp, 32
	ldp	x29, x30, [sp, #16]
	add	sp, sp, #32
	.cfi_def_cfa_offset 0
	.cfi_restore w30
	.cfi_restore w29
	ret
Ltmp224:
Lfunc_end15:
	.cfi_endproc

	.p2align	2
__ZN4core3ops8function6FnOnce9call_once17he2ec09c901655e50E:
Lfunc_begin16:
	.loc	19 507 0
	.cfi_startproc
	sub	sp, sp, #32
	.cfi_def_cfa_offset 32
	stp	x29, x30, [sp, #16]
	add	x29, sp, #16
	.cfi_def_cfa w29, 16
	.cfi_offset w30, -8
	.cfi_offset w29, -16
	str	x0, [sp, #8]
Ltmp225:
	.loc	19 507 5 prologue_end
	blr	x0
	.cfi_def_cfa wsp, 32
	ldp	x29, x30, [sp, #16]
	add	sp, sp, #32
	.cfi_def_cfa_offset 0
	.cfi_restore w30
	.cfi_restore w29
	ret
Ltmp226:
Lfunc_end16:
	.cfi_endproc

	.p2align	2
__ZN4core3ops8function6FnOnce9call_once17hf02b68735dabd517E:
Lfunc_begin17:
	.loc	19 507 0
	.cfi_startproc
	.cfi_personality 155, _rust_eh_personality
	.cfi_lsda 16, Lexception1
	sub	sp, sp, #64
	.cfi_def_cfa_offset 64
	stp	x29, x30, [sp, #48]
	add	x29, sp, #48
	.cfi_def_cfa w29, 16
	.cfi_offset w30, -8
	.cfi_offset w29, -16
	mov	x8, x0
	add	x0, sp, #16
	str	x8, [sp, #16]
Ltmp227:
Ltmp230:
	.loc	19 507 5 prologue_end
	bl	__ZN3std2rt10lang_start28_$u7b$$u7b$closure$u7d$$u7d$17h4e595feacafca2cfE
	str	w0, [sp, #12]
Ltmp228:
	b	LBB17_3
LBB17_1:
	ldur	x0, [x29, #-16]
	bl	__Unwind_Resume
LBB17_2:
Ltmp229:
	.loc	19 0 5 is_stmt 0
	mov	x8, x1
	stur	x0, [x29, #-16]
	stur	w8, [x29, #-8]
	b	LBB17_1
LBB17_3:
	ldr	w0, [sp, #12]
	.cfi_def_cfa wsp, 64
	.loc	19 507 5
	ldp	x29, x30, [sp, #48]
	add	sp, sp, #64
	.cfi_def_cfa_offset 0
	.cfi_restore w30
	.cfi_restore w29
	ret
Ltmp231:
Lfunc_end17:
	.cfi_endproc
	.section	__TEXT,__gcc_except_tab
	.p2align	2
GCC_except_table17:
Lexception1:
	.byte	255
	.byte	255
	.byte	1
	.uleb128 Lcst_end1-Lcst_begin1
Lcst_begin1:
	.uleb128 Ltmp227-Lfunc_begin17
	.uleb128 Ltmp228-Ltmp227
	.uleb128 Ltmp229-Lfunc_begin17
	.byte	0
	.uleb128 Ltmp228-Lfunc_begin17
	.uleb128 Lfunc_end17-Ltmp228
	.byte	0
	.byte	0
Lcst_end1:
	.p2align	2

	.section	__TEXT,__text,regular,pure_instructions
	.p2align	2
__ZN4core3ptr101drop_in_place$LT$std..io..error..ErrorData$LT$alloc..boxed..Box$LT$std..io..error..Custom$GT$$GT$$GT$17hcbc85e7c2d5d00c6E:
Lfunc_begin18:
	.file	20 "/rustc/c5d82ed7a4ad94a538bb87e5016e7d5ce0bd434b/library/core/src/ptr" "mod.rs"
	.loc	20 490 0 is_stmt 1
	.cfi_startproc
	sub	sp, sp, #32
	.cfi_def_cfa_offset 32
	stp	x29, x30, [sp, #16]
	add	x29, sp, #16
	.cfi_def_cfa w29, 16
	.cfi_offset w30, -8
	.cfi_offset w29, -16
	str	x0, [sp]
	mov	x8, x0
	str	x8, [sp, #8]
Ltmp232:
	.loc	20 490 1 prologue_end
	ldrb	w8, [x0]
	subs	x8, x8, #0
	subs	x8, x8, #2
	cset	w8, ls
	tbnz	w8, #0, LBB18_2
	b	LBB18_1
LBB18_1:
	.loc	20 0 1 is_stmt 0
	ldr	x8, [sp]
	.loc	20 490 1
	add	x0, x8, #8
	bl	__ZN4core3ptr68drop_in_place$LT$alloc..boxed..Box$LT$std..io..error..Custom$GT$$GT$17h9fcfac82095b4948E
	b	LBB18_2
LBB18_2:
	.cfi_def_cfa wsp, 32
	ldp	x29, x30, [sp, #16]
	add	sp, sp, #32
	.cfi_def_cfa_offset 0
	.cfi_restore w30
	.cfi_restore w29
	ret
Ltmp233:
Lfunc_end18:
	.cfi_endproc

	.p2align	2
__ZN4core3ptr118drop_in_place$LT$alloc..boxed..Box$LT$dyn$u20$core..error..Error$u2b$core..marker..Send$u2b$core..marker..Sync$GT$$GT$17h496a65d0bb8ce501E:
Lfunc_begin19:
	.loc	20 490 0 is_stmt 1
	.cfi_startproc
	.cfi_personality 155, _rust_eh_personality
	.cfi_lsda 16, Lexception2
	sub	sp, sp, #48
	.cfi_def_cfa_offset 48
	stp	x29, x30, [sp, #32]
	add	x29, sp, #32
	.cfi_def_cfa w29, 16
	.cfi_offset w30, -8
	.cfi_offset w29, -16
	.cfi_remember_state
	mov	x8, x0
	str	x8, [sp]
	mov	x0, x8
	str	x0, [sp, #8]
Ltmp240:
	.loc	20 490 1 prologue_end
	ldr	x0, [x8]
	ldr	x8, [x8, #8]
	ldr	x8, [x8]
Ltmp234:
	blr	x8
Ltmp235:
	b	LBB19_3
LBB19_1:
	.loc	20 0 1 is_stmt 0
	ldr	x8, [sp]
	.loc	20 490 1
	ldr	x0, [x8]
	ldr	x1, [x8, #8]
Ltmp237:
	bl	__ZN5alloc5alloc8box_free17hd2de46f2a463d048E
Ltmp238:
	b	LBB19_5
LBB19_2:
Ltmp236:
	.loc	20 0 1
	mov	x8, x1
	str	x0, [sp, #16]
	str	w8, [sp, #24]
	b	LBB19_1
LBB19_3:
	ldr	x8, [sp]
	.loc	20 490 1
	ldr	x0, [x8]
	ldr	x1, [x8, #8]
	bl	__ZN5alloc5alloc8box_free17hd2de46f2a463d048E
	.cfi_def_cfa wsp, 48
	ldp	x29, x30, [sp, #32]
	add	sp, sp, #48
	.cfi_def_cfa_offset 0
	.cfi_restore w30
	.cfi_restore w29
	ret
LBB19_4:
	.cfi_restore_state
Ltmp239:
	bl	__ZN4core9panicking15panic_no_unwind17hccbe1214147c6397E
LBB19_5:
	ldr	x0, [sp, #16]
	bl	__Unwind_Resume
Ltmp241:
Lfunc_end19:
	.cfi_endproc
	.section	__TEXT,__gcc_except_tab
	.p2align	2
GCC_except_table19:
Lexception2:
	.byte	255
	.byte	255
	.byte	1
	.uleb128 Lcst_end2-Lcst_begin2
Lcst_begin2:
	.uleb128 Ltmp234-Lfunc_begin19
	.uleb128 Ltmp235-Ltmp234
	.uleb128 Ltmp236-Lfunc_begin19
	.byte	0
	.uleb128 Ltmp237-Lfunc_begin19
	.uleb128 Ltmp238-Ltmp237
	.uleb128 Ltmp239-Lfunc_begin19
	.byte	0
	.uleb128 Ltmp238-Lfunc_begin19
	.uleb128 Lfunc_end19-Ltmp238
	.byte	0
	.byte	0
Lcst_end2:
	.p2align	2

	.section	__TEXT,__text,regular,pure_instructions
	.p2align	2
__ZN4core3ptr42drop_in_place$LT$alloc..string..String$GT$17hb29d7127b8a72c9aE:
Lfunc_begin20:
	.loc	20 490 0 is_stmt 1
	.cfi_startproc
	sub	sp, sp, #32
	.cfi_def_cfa_offset 32
	stp	x29, x30, [sp, #16]
	add	x29, sp, #16
	.cfi_def_cfa w29, 16
	.cfi_offset w30, -8
	.cfi_offset w29, -16
	mov	x8, x0
	str	x8, [sp, #8]
Ltmp242:
	.loc	20 490 1 prologue_end
	bl	__ZN4core3ptr46drop_in_place$LT$alloc..vec..Vec$LT$u8$GT$$GT$17hdd0912d49f39a7deE
	.cfi_def_cfa wsp, 32
	ldp	x29, x30, [sp, #16]
	add	sp, sp, #32
	.cfi_def_cfa_offset 0
	.cfi_restore w30
	.cfi_restore w29
	ret
Ltmp243:
Lfunc_end20:
	.cfi_endproc

	.p2align	2
__ZN4core3ptr42drop_in_place$LT$std..io..error..Error$GT$17hdda6d1645bfe5b68E:
Lfunc_begin21:
	.loc	20 490 0
	.cfi_startproc
	sub	sp, sp, #32
	.cfi_def_cfa_offset 32
	stp	x29, x30, [sp, #16]
	add	x29, sp, #16
	.cfi_def_cfa w29, 16
	.cfi_offset w30, -8
	.cfi_offset w29, -16
	mov	x8, x0
	str	x8, [sp, #8]
Ltmp244:
	.loc	20 490 1 prologue_end
	bl	__ZN4core3ptr57drop_in_place$LT$std..io..error..repr_bitpacked..Repr$GT$17h5fcfa1d67490061fE
	.cfi_def_cfa wsp, 32
	ldp	x29, x30, [sp, #16]
	add	sp, sp, #32
	.cfi_def_cfa_offset 0
	.cfi_restore w30
	.cfi_restore w29
	ret
Ltmp245:
Lfunc_end21:
	.cfi_endproc

	.p2align	2
__ZN4core3ptr43drop_in_place$LT$std..io..error..Custom$GT$17h7fdcb8594973fe50E:
Lfunc_begin22:
	.loc	20 490 0
	.cfi_startproc
	sub	sp, sp, #32
	.cfi_def_cfa_offset 32
	stp	x29, x30, [sp, #16]
	add	x29, sp, #16
	.cfi_def_cfa w29, 16
	.cfi_offset w30, -8
	.cfi_offset w29, -16
	mov	x8, x0
	str	x8, [sp, #8]
Ltmp246:
	.loc	20 490 1 prologue_end
	bl	__ZN4core3ptr118drop_in_place$LT$alloc..boxed..Box$LT$dyn$u20$core..error..Error$u2b$core..marker..Send$u2b$core..marker..Sync$GT$$GT$17h496a65d0bb8ce501E
	.cfi_def_cfa wsp, 32
	ldp	x29, x30, [sp, #16]
	add	sp, sp, #32
	.cfi_def_cfa_offset 0
	.cfi_restore w30
	.cfi_restore w29
	ret
Ltmp247:
Lfunc_end22:
	.cfi_endproc

	.p2align	2
__ZN4core3ptr46drop_in_place$LT$alloc..vec..Vec$LT$u8$GT$$GT$17hdd0912d49f39a7deE:
Lfunc_begin23:
	.loc	20 490 0
	.cfi_startproc
	.cfi_personality 155, _rust_eh_personality
	.cfi_lsda 16, Lexception3
	sub	sp, sp, #48
	.cfi_def_cfa_offset 48
	stp	x29, x30, [sp, #32]
	add	x29, sp, #32
	.cfi_def_cfa w29, 16
	.cfi_offset w30, -8
	.cfi_offset w29, -16
	.cfi_remember_state
	str	x0, [sp]
	mov	x8, x0
	str	x8, [sp, #8]
Ltmp248:
Ltmp254:
	.loc	20 490 1 prologue_end
	bl	__ZN70_$LT$alloc..vec..Vec$LT$T$C$A$GT$$u20$as$u20$core..ops..drop..Drop$GT$4drop17hcdc7244169452bc1E
Ltmp249:
	b	LBB23_3
LBB23_1:
Ltmp251:
	.loc	20 0 1 is_stmt 0
	ldr	x0, [sp]
	.loc	20 490 1
	bl	__ZN4core3ptr53drop_in_place$LT$alloc..raw_vec..RawVec$LT$u8$GT$$GT$17h4f97def6c0892cf5E
Ltmp252:
	b	LBB23_5
LBB23_2:
Ltmp250:
	.loc	20 0 1
	mov	x8, x1
	str	x0, [sp, #16]
	str	w8, [sp, #24]
	b	LBB23_1
LBB23_3:
	ldr	x0, [sp]
	.loc	20 490 1
	bl	__ZN4core3ptr53drop_in_place$LT$alloc..raw_vec..RawVec$LT$u8$GT$$GT$17h4f97def6c0892cf5E
	.cfi_def_cfa wsp, 48
	ldp	x29, x30, [sp, #32]
	add	sp, sp, #48
	.cfi_def_cfa_offset 0
	.cfi_restore w30
	.cfi_restore w29
	ret
LBB23_4:
	.cfi_restore_state
Ltmp253:
	bl	__ZN4core9panicking15panic_no_unwind17hccbe1214147c6397E
LBB23_5:
	ldr	x0, [sp, #16]
	bl	__Unwind_Resume
Ltmp255:
Lfunc_end23:
	.cfi_endproc
	.section	__TEXT,__gcc_except_tab
	.p2align	2
GCC_except_table23:
Lexception3:
	.byte	255
	.byte	255
	.byte	1
	.uleb128 Lcst_end3-Lcst_begin3
Lcst_begin3:
	.uleb128 Ltmp248-Lfunc_begin23
	.uleb128 Ltmp249-Ltmp248
	.uleb128 Ltmp250-Lfunc_begin23
	.byte	0
	.uleb128 Ltmp251-Lfunc_begin23
	.uleb128 Ltmp252-Ltmp251
	.uleb128 Ltmp253-Lfunc_begin23
	.byte	0
	.uleb128 Ltmp252-Lfunc_begin23
	.uleb128 Lfunc_end23-Ltmp252
	.byte	0
	.byte	0
Lcst_end3:
	.p2align	2

	.section	__TEXT,__text,regular,pure_instructions
	.p2align	2
__ZN4core3ptr52drop_in_place$LT$core..num..error..ParseIntError$GT$17h67c66027c1c6c38aE:
Lfunc_begin24:
	.loc	20 490 0 is_stmt 1
	.cfi_startproc
	sub	sp, sp, #16
	.cfi_def_cfa_offset 16
	str	x0, [sp, #8]
Ltmp257:
	.loc	20 490 1 prologue_end
	add	sp, sp, #16
	.cfi_def_cfa_offset 0
	ret
Ltmp258:
Lfunc_end24:
	.cfi_endproc

	.p2align	2
__ZN4core3ptr53drop_in_place$LT$alloc..raw_vec..RawVec$LT$u8$GT$$GT$17h4f97def6c0892cf5E:
Lfunc_begin25:
	.loc	20 490 0
	.cfi_startproc
	sub	sp, sp, #32
	.cfi_def_cfa_offset 32
	stp	x29, x30, [sp, #16]
	add	x29, sp, #16
	.cfi_def_cfa w29, 16
	.cfi_offset w30, -8
	.cfi_offset w29, -16
	mov	x8, x0
	str	x8, [sp, #8]
Ltmp259:
	.loc	20 490 1 prologue_end
	bl	__ZN77_$LT$alloc..raw_vec..RawVec$LT$T$C$A$GT$$u20$as$u20$core..ops..drop..Drop$GT$4drop17h84e8a9322695eb2bE
	.cfi_def_cfa wsp, 32
	ldp	x29, x30, [sp, #16]
	add	sp, sp, #32
	.cfi_def_cfa_offset 0
	.cfi_restore w30
	.cfi_restore w29
	ret
Ltmp260:
Lfunc_end25:
	.cfi_endproc

	.p2align	2
__ZN4core3ptr57drop_in_place$LT$std..io..error..repr_bitpacked..Repr$GT$17h5fcfa1d67490061fE:
Lfunc_begin26:
	.loc	20 490 0
	.cfi_startproc
	sub	sp, sp, #32
	.cfi_def_cfa_offset 32
	stp	x29, x30, [sp, #16]
	add	x29, sp, #16
	.cfi_def_cfa w29, 16
	.cfi_offset w30, -8
	.cfi_offset w29, -16
	mov	x8, x0
	str	x8, [sp, #8]
Ltmp261:
	.loc	20 490 1 prologue_end
	bl	__ZN78_$LT$std..io..error..repr_bitpacked..Repr$u20$as$u20$core..ops..drop..Drop$GT$4drop17h5a6735240a8ccb8cE
	.cfi_def_cfa wsp, 32
	ldp	x29, x30, [sp, #16]
	add	sp, sp, #32
	.cfi_def_cfa_offset 0
	.cfi_restore w30
	.cfi_restore w29
	ret
Ltmp262:
Lfunc_end26:
	.cfi_endproc

	.p2align	2
__ZN4core3ptr68drop_in_place$LT$alloc..boxed..Box$LT$std..io..error..Custom$GT$$GT$17h9fcfac82095b4948E:
Lfunc_begin27:
	.loc	20 490 0
	.cfi_startproc
	.cfi_personality 155, _rust_eh_personality
	.cfi_lsda 16, Lexception4
	sub	sp, sp, #48
	.cfi_def_cfa_offset 48
	stp	x29, x30, [sp, #32]
	add	x29, sp, #32
	.cfi_def_cfa w29, 16
	.cfi_offset w30, -8
	.cfi_offset w29, -16
	.cfi_remember_state
	str	x0, [sp]
	mov	x8, x0
	str	x8, [sp, #8]
Ltmp269:
	.loc	20 490 1 prologue_end
	ldr	x0, [x0]
Ltmp263:
	bl	__ZN4core3ptr43drop_in_place$LT$std..io..error..Custom$GT$17h7fdcb8594973fe50E
Ltmp264:
	b	LBB27_3
LBB27_1:
	.loc	20 0 1 is_stmt 0
	ldr	x8, [sp]
	.loc	20 490 1
	ldr	x0, [x8]
Ltmp266:
	bl	__ZN5alloc5alloc8box_free17h8d3466e882c6e559E
Ltmp267:
	b	LBB27_5
LBB27_2:
Ltmp265:
	.loc	20 0 1
	mov	x8, x1
	str	x0, [sp, #16]
	str	w8, [sp, #24]
	b	LBB27_1
LBB27_3:
	ldr	x8, [sp]
	.loc	20 490 1
	ldr	x0, [x8]
	bl	__ZN5alloc5alloc8box_free17h8d3466e882c6e559E
	.cfi_def_cfa wsp, 48
	ldp	x29, x30, [sp, #32]
	add	sp, sp, #48
	.cfi_def_cfa_offset 0
	.cfi_restore w30
	.cfi_restore w29
	ret
LBB27_4:
	.cfi_restore_state
Ltmp268:
	bl	__ZN4core9panicking15panic_no_unwind17hccbe1214147c6397E
LBB27_5:
	ldr	x0, [sp, #16]
	bl	__Unwind_Resume
Ltmp270:
Lfunc_end27:
	.cfi_endproc
	.section	__TEXT,__gcc_except_tab
	.p2align	2
GCC_except_table27:
Lexception4:
	.byte	255
	.byte	255
	.byte	1
	.uleb128 Lcst_end4-Lcst_begin4
Lcst_begin4:
	.uleb128 Ltmp263-Lfunc_begin27
	.uleb128 Ltmp264-Ltmp263
	.uleb128 Ltmp265-Lfunc_begin27
	.byte	0
	.uleb128 Ltmp266-Lfunc_begin27
	.uleb128 Ltmp267-Ltmp266
	.uleb128 Ltmp268-Lfunc_begin27
	.byte	0
	.uleb128 Ltmp267-Lfunc_begin27
	.uleb128 Lfunc_end27-Ltmp267
	.byte	0
	.byte	0
Lcst_end4:
	.p2align	2

	.section	__TEXT,__text,regular,pure_instructions
	.p2align	2
__ZN4core3ptr7mut_ptr31_$LT$impl$u20$$BP$mut$u20$T$GT$13guaranteed_eq17h87a836f7017c20afE:
Lfunc_begin28:
	.loc	6 738 0 is_stmt 1
	.cfi_startproc
	sub	sp, sp, #48
	.cfi_def_cfa_offset 48
	str	x0, [sp, #8]
	str	x1, [sp, #16]
Ltmp272:
	.loc	6 742 10 prologue_end
	str	x0, [sp, #24]
	.loc	6 742 42 is_stmt 0
	str	x1, [sp, #32]
Ltmp273:
	.loc	4 818 15 is_stmt 1
	subs	x8, x0, x1
	cset	w8, eq
	mov	w9, #1
	and	w8, w8, w9
	strb	w8, [sp, #46]
	ldrb	w8, [sp, #46]
	str	w8, [sp]
	.loc	4 818 9 is_stmt 0
	subs	w8, w8, #2
	cset	w8, ne
	tbnz	w8, #0, LBB28_2
	b	LBB28_1
LBB28_1:
	.loc	4 0 9
	mov	w8, #2
	.loc	4 819 18 is_stmt 1
	strb	w8, [sp, #7]
	b	LBB28_3
LBB28_2:
	.loc	4 0 18 is_stmt 0
	ldr	w8, [sp]
	.loc	4 820 13 is_stmt 1
	strb	w8, [sp, #47]
	mov	w9, #1
Ltmp274:
	.loc	4 820 27 is_stmt 0
	subs	w8, w8, #1
	cset	w8, eq
	.loc	4 820 22
	and	w8, w8, w9
	strb	w8, [sp, #7]
Ltmp275:
	.loc	4 820 37
	b	LBB28_3
Ltmp276:
LBB28_3:
	.loc	6 743 6 is_stmt 1
	ldrb	w0, [sp, #7]
	add	sp, sp, #48
	.cfi_def_cfa_offset 0
	ret
Ltmp277:
Lfunc_end28:
	.cfi_endproc

	.p2align	2
__ZN4core3ptr7mut_ptr31_$LT$impl$u20$$BP$mut$u20$T$GT$7is_null17he1e87271ae509351E:
Lfunc_begin29:
	.loc	6 35 0
	.cfi_startproc
	sub	sp, sp, #80
	.cfi_def_cfa_offset 80
	stp	x29, x30, [sp, #64]
	add	x29, sp, #64
	.cfi_def_cfa w29, 16
	.cfi_offset w30, -8
	.cfi_offset w29, -16
	mov	x8, x0
	str	x8, [sp, #24]
Ltmp278:
	.loc	20 578 14 prologue_end
	stur	xzr, [x29, #-24]
	ldur	x8, [x29, #-24]
	stur	x8, [x29, #-16]
Ltmp279:
	.loc	9 135 36
	str	x8, [sp, #16]
	.loc	9 135 14 is_stmt 0
	ldr	x8, [sp, #16]
	str	x8, [sp, #8]
	ldr	x1, [sp, #8]
Ltmp280:
	.loc	6 38 15 is_stmt 1
	bl	__ZN4core3ptr7mut_ptr31_$LT$impl$u20$$BP$mut$u20$T$GT$13guaranteed_eq17h87a836f7017c20afE
	strb	w0, [sp, #7]
	ldrb	w8, [sp, #7]
	subs	w8, w8, #2
	cset	w8, eq
	and	w8, w8, #0x1
	ands	w8, w8, #0x1
	cset	x8, eq
	.loc	6 38 9 is_stmt 0
	subs	x8, x8, #0
	cset	w8, ne
	tbnz	w8, #0, LBB29_2
	b	LBB29_1
LBB29_1:
	.loc	6 39 21 is_stmt 1
	strb	wzr, [sp, #6]
	b	LBB29_3
LBB29_2:
	.loc	6 40 18
	ldrb	w8, [sp, #7]
	mov	w9, #1
	and	w9, w8, w9
	sturb	w9, [x29, #-1]
Ltmp281:
	.loc	6 40 26 is_stmt 0
	and	w8, w8, #0x1
	strb	w8, [sp, #6]
Ltmp282:
	.loc	6 40 28
	b	LBB29_3
LBB29_3:
	.loc	6 42 6 is_stmt 1
	ldrb	w8, [sp, #6]
	and	w0, w8, #0x1
	.cfi_def_cfa wsp, 80
	ldp	x29, x30, [sp, #64]
	add	sp, sp, #80
	.cfi_def_cfa_offset 0
	.cfi_restore w30
	.cfi_restore w29
	ret
Ltmp283:
Lfunc_end29:
	.cfi_endproc

	.p2align	2
__ZN4core3ptr85drop_in_place$LT$std..rt..lang_start$LT$$LP$$RP$$GT$..$u7b$$u7b$closure$u7d$$u7d$$GT$17hdf799576f600cefbE:
Lfunc_begin30:
	.loc	20 490 0
	.cfi_startproc
	sub	sp, sp, #16
	.cfi_def_cfa_offset 16
	str	x0, [sp, #8]
Ltmp285:
	.loc	20 490 1 prologue_end
	add	sp, sp, #16
	.cfi_def_cfa_offset 0
	ret
Ltmp286:
Lfunc_end30:
	.cfi_endproc

	.p2align	2
__ZN4core3ptr93drop_in_place$LT$dyn$u20$core..error..Error$u2b$core..marker..Send$u2b$core..marker..Sync$GT$17hffb0e817bdaed1fdE:
Lfunc_begin31:
	.loc	20 490 0
	.cfi_startproc
	sub	sp, sp, #32
	.cfi_def_cfa_offset 32
	stp	x29, x30, [sp, #16]
	add	x29, sp, #16
	.cfi_def_cfa w29, 16
	.cfi_offset w30, -8
	.cfi_offset w29, -16
	mov	x8, x0
	str	x8, [sp]
	mov	x8, x1
	str	x8, [sp, #8]
Ltmp287:
	.loc	20 490 1 prologue_end
	ldr	x8, [x1]
	blr	x8
	.cfi_def_cfa wsp, 32
	ldp	x29, x30, [sp, #16]
	add	sp, sp, #32
	.cfi_def_cfa_offset 0
	.cfi_restore w30
	.cfi_restore w29
	ret
Ltmp288:
Lfunc_end31:
	.cfi_endproc

	.p2align	2
__ZN4core3ptr9const_ptr33_$LT$impl$u20$$BP$const$u20$T$GT$7is_null17hba248d6a37fcefdaE:
Lfunc_begin32:
	.loc	4 36 0
	.cfi_startproc
	sub	sp, sp, #80
	.cfi_def_cfa_offset 80
	str	x0, [sp, #24]
Ltmp290:
	.loc	4 39 15 prologue_end
	str	x0, [sp, #40]
Ltmp291:
	.loc	20 547 14
	str	xzr, [sp, #48]
	ldr	x8, [sp, #48]
	str	x8, [sp, #56]
Ltmp292:
	.loc	9 118 36
	str	x8, [sp, #16]
	.loc	9 118 14 is_stmt 0
	ldr	x8, [sp, #16]
	str	x8, [sp, #8]
	ldr	x8, [sp, #8]
	str	x8, [sp, #64]
Ltmp293:
	.loc	4 818 15 is_stmt 1
	subs	x8, x0, x8
	cset	w8, eq
	mov	w9, #1
	and	w8, w8, w9
	strb	w8, [sp, #77]
	ldrb	w8, [sp, #77]
	str	w8, [sp]
	.loc	4 818 9 is_stmt 0
	subs	w8, w8, #2
	cset	w8, ne
	tbnz	w8, #0, LBB32_2
	b	LBB32_1
LBB32_1:
	.loc	4 0 9
	mov	w8, #2
	.loc	4 819 18 is_stmt 1
	strb	w8, [sp, #7]
	b	LBB32_3
LBB32_2:
	.loc	4 0 18 is_stmt 0
	ldr	w8, [sp]
	.loc	4 820 13 is_stmt 1
	strb	w8, [sp, #78]
	mov	w9, #1
Ltmp294:
	.loc	4 820 27 is_stmt 0
	subs	w8, w8, #1
	cset	w8, eq
	.loc	4 820 22
	and	w8, w8, w9
	strb	w8, [sp, #7]
Ltmp295:
	.loc	4 820 37
	b	LBB32_3
Ltmp296:
LBB32_3:
	.loc	4 39 15 is_stmt 1
	ldrb	w8, [sp, #7]
	subs	w8, w8, #2
	cset	w8, eq
	and	w8, w8, #0x1
	ands	w8, w8, #0x1
	cset	x8, eq
	.loc	4 39 9 is_stmt 0
	subs	x8, x8, #0
	cset	w8, ne
	tbnz	w8, #0, LBB32_5
	b	LBB32_4
LBB32_4:
	.loc	4 40 21 is_stmt 1
	strb	wzr, [sp, #6]
	b	LBB32_6
LBB32_5:
	.loc	4 41 18
	ldrb	w8, [sp, #7]
	mov	w9, #1
	and	w9, w8, w9
	strb	w9, [sp, #79]
Ltmp297:
	.loc	4 41 26 is_stmt 0
	and	w8, w8, #0x1
	strb	w8, [sp, #6]
Ltmp298:
	.loc	4 41 28
	b	LBB32_6
LBB32_6:
	.loc	4 43 6 is_stmt 1
	ldrb	w8, [sp, #6]
	and	w0, w8, #0x1
	add	sp, sp, #80
	.cfi_def_cfa_offset 0
	ret
Ltmp299:
Lfunc_end32:
	.cfi_endproc

	.p2align	2
__ZN4core3str11validations15next_code_point17hc7e266001163165bE:
Lfunc_begin33:
	.file	21 "/rustc/c5d82ed7a4ad94a538bb87e5016e7d5ce0bd434b/library/core/src/str" "validations.rs"
	.loc	21 36 0
	.cfi_startproc
	sub	sp, sp, #160
	.cfi_def_cfa_offset 160
	stp	x29, x30, [sp, #144]
	add	x29, sp, #144
	.cfi_def_cfa w29, 16
	.cfi_offset w30, -8
	.cfi_offset w29, -16
	.cfi_remember_state
	str	x0, [sp, #24]
	mov	x8, x0
	str	x8, [sp, #64]
Ltmp300:
	.loc	21 38 14 prologue_end
	bl	__ZN91_$LT$core..slice..iter..Iter$LT$T$GT$$u20$as$u20$core..iter..traits..iterator..Iterator$GT$4next17h86b9252a26c4961dE
	str	x0, [sp, #48]
Ltmp301:
	.loc	14 2296 15
	ldr	x8, [sp, #48]
	subs	x8, x8, #0
	cset	w8, eq
	and	w8, w8, #0x1
	ands	w8, w8, #0x1
	cset	x8, eq
	.loc	14 2296 9 is_stmt 0
	subs	x8, x8, #0
	cset	w8, ne
	tbnz	w8, #0, LBB33_2
	b	LBB33_1
LBB33_1:
	.loc	14 2298 21 is_stmt 1
	str	xzr, [sp, #40]
	.loc	14 2298 44 is_stmt 0
	b	LBB33_3
LBB33_2:
	.loc	14 2297 18 is_stmt 1
	ldr	x8, [sp, #48]
	stur	x8, [x29, #-64]
Ltmp302:
	.loc	14 2297 24 is_stmt 0
	str	x8, [sp, #40]
Ltmp303:
	.loc	14 2300 5 is_stmt 1
	b	LBB33_3
Ltmp304:
LBB33_3:
	.loc	21 38 14
	ldr	x9, [sp, #40]
	mov	x8, #0
	subs	x9, x9, #0
	cset	w9, eq
	and	w9, w9, #0x1
	ands	w9, w9, #0x1
	csinc	x8, x8, xzr, eq
	subs	x8, x8, #0
	cset	w8, ne
	tbnz	w8, #0, LBB33_5
	b	LBB33_4
LBB33_4:
	ldr	x8, [sp, #40]
	mov	x9, x8
	stur	x9, [x29, #-56]
	.loc	21 38 13 is_stmt 0
	ldrb	w8, [x8]
	str	w8, [sp, #20]
	sturb	w8, [x29, #-42]
Ltmp305:
	.loc	21 39 8 is_stmt 1
	and	w8, w8, #0xff
	subs	w8, w8, #128
	cset	w8, lo
	tbnz	w8, #0, LBB33_8
	b	LBB33_7
Ltmp306:
LBB33_5:
	.loc	14 2309 21
	str	wzr, [sp, #32]
Ltmp307:
	.file	22 "/Users/fedep/Desktop/calculator" "src/main.rs"
	.loc	22 1 1
	b	LBB33_6
LBB33_6:
	.loc	21 70 2
	b	LBB33_9
LBB33_7:
	.loc	21 0 2 is_stmt 0
	ldr	w8, [sp, #20]
	ldr	x0, [sp, #24]
Ltmp308:
	.loc	21 46 32 is_stmt 1
	sturb	w8, [x29, #-41]
Ltmp309:
	.loc	21 12 5
	and	w8, w8, #0x1f
	and	w8, w8, #0xff
	str	w8, [sp, #12]
	stur	w8, [x29, #-40]
Ltmp310:
	.loc	21 49 23
	bl	__ZN91_$LT$core..slice..iter..Iter$LT$T$GT$$u20$as$u20$core..iter..traits..iterator..Iterator$GT$4next17h86b9252a26c4961dE
	adrp	x1, l___unnamed_9@PAGE
	add	x1, x1, l___unnamed_9@PAGEOFF
	bl	__ZN4core6option15Option$LT$T$GT$16unwrap_unchecked17h612e7f4b47171f82E
	ldr	w10, [sp, #12]
	ldr	w8, [sp, #20]
	.loc	21 49 22 is_stmt 0
	ldrb	w9, [x0]
	str	w9, [sp, #16]
	sturb	w9, [x29, #-33]
Ltmp311:
	.loc	21 50 37 is_stmt 1
	stur	w10, [x29, #-32]
	.loc	21 50 43 is_stmt 0
	sturb	w9, [x29, #-26]
Ltmp312:
	.loc	21 18 17 is_stmt 1
	and	w9, w9, #0x3f
	and	w9, w9, #0xff
	.loc	21 18 5 is_stmt 0
	orr	w9, w9, w10, lsl #6
	str	w9, [sp, #60]
Ltmp313:
	.loc	21 51 8 is_stmt 1
	and	w8, w8, #0xff
	subs	w8, w8, #224
	cset	w8, hs
	tbnz	w8, #0, LBB33_11
	b	LBB33_10
Ltmp314:
LBB33_8:
	.loc	21 0 8 is_stmt 0
	ldr	w8, [sp, #20]
	.loc	21 40 16 is_stmt 1
	str	w8, [sp, #36]
	mov	w8, #1
	str	w8, [sp, #32]
	.loc	22 1 1
	b	LBB33_6
Ltmp315:
LBB33_9:
	.loc	21 70 2
	ldr	w0, [sp, #32]
	ldr	w1, [sp, #36]
	.cfi_def_cfa wsp, 160
	ldp	x29, x30, [sp, #144]
	add	sp, sp, #160
	.cfi_def_cfa_offset 0
	.cfi_restore w30
	.cfi_restore w29
	ret
LBB33_10:
	.cfi_restore_state
Ltmp316:
	.loc	21 69 10
	ldr	w8, [sp, #60]
	.loc	21 69 5 is_stmt 0
	str	w8, [sp, #36]
	mov	w8, #1
	str	w8, [sp, #32]
Ltmp317:
	.loc	21 70 2 is_stmt 1
	b	LBB33_9
LBB33_11:
	.loc	21 0 2 is_stmt 0
	ldr	x0, [sp, #24]
Ltmp318:
	.loc	21 56 27 is_stmt 1
	bl	__ZN91_$LT$core..slice..iter..Iter$LT$T$GT$$u20$as$u20$core..iter..traits..iterator..Iterator$GT$4next17h86b9252a26c4961dE
	adrp	x1, l___unnamed_10@PAGE
	add	x1, x1, l___unnamed_10@PAGEOFF
	bl	__ZN4core6option15Option$LT$T$GT$16unwrap_unchecked17h612e7f4b47171f82E
	ldr	w11, [sp, #16]
	ldr	w10, [sp, #12]
	ldr	w8, [sp, #20]
	.loc	21 56 26 is_stmt 0
	ldrb	w9, [x0]
	sturb	w9, [x29, #-25]
	mov	w12, #63
Ltmp319:
	.loc	21 57 38 is_stmt 1
	and	w11, w11, #0x3f
	and	w11, w11, #0xff
	stur	w11, [x29, #-24]
	.loc	21 57 62 is_stmt 0
	sturb	w9, [x29, #-17]
Ltmp320:
	.loc	21 18 17 is_stmt 1
	and	w9, w9, w12
	and	w9, w9, #0xff
	.loc	21 18 5 is_stmt 0
	orr	w9, w9, w11, lsl #6
	str	w9, [sp, #8]
	stur	w9, [x29, #-16]
Ltmp321:
	.loc	21 58 9 is_stmt 1
	orr	w9, w9, w10, lsl #12
	str	w9, [sp, #60]
	.loc	21 59 12
	and	w8, w8, #0xff
	subs	w8, w8, #240
	cset	w8, hs
	tbnz	w8, #0, LBB33_13
	b	LBB33_12
Ltmp322:
LBB33_12:
	.loc	21 51 5
	b	LBB33_10
LBB33_13:
	.loc	21 0 5 is_stmt 0
	ldr	x0, [sp, #24]
Ltmp323:
	.loc	21 64 31 is_stmt 1
	bl	__ZN91_$LT$core..slice..iter..Iter$LT$T$GT$$u20$as$u20$core..iter..traits..iterator..Iterator$GT$4next17h86b9252a26c4961dE
	adrp	x1, l___unnamed_11@PAGE
	add	x1, x1, l___unnamed_11@PAGEOFF
	bl	__ZN4core6option15Option$LT$T$GT$16unwrap_unchecked17h612e7f4b47171f82E
	ldr	w9, [sp, #12]
	ldr	w10, [sp, #8]
	.loc	21 64 30 is_stmt 0
	ldrb	w8, [x0]
	sturb	w8, [x29, #-9]
Ltmp324:
	.loc	21 65 18 is_stmt 1
	and	w9, w9, #0x7
	.loc	21 65 56 is_stmt 0
	stur	w10, [x29, #-8]
	.loc	21 65 61
	sturb	w8, [x29, #-1]
Ltmp325:
	.loc	21 18 17 is_stmt 1
	and	w8, w8, #0x3f
	and	w8, w8, #0xff
	.loc	21 18 5 is_stmt 0
	orr	w8, w8, w10, lsl #6
Ltmp326:
	.loc	21 65 13 is_stmt 1
	orr	w8, w8, w9, lsl #18
	str	w8, [sp, #60]
Ltmp327:
	.loc	21 59 9
	b	LBB33_12
Ltmp328:
Lfunc_end33:
	.cfi_endproc

	.p2align	2
__ZN4core3str11validations23next_code_point_reverse17h835ba35921e38f76E:
Lfunc_begin34:
	.loc	21 79 0
	.cfi_startproc
	sub	sp, sp, #160
	.cfi_def_cfa_offset 160
	stp	x29, x30, [sp, #144]
	add	x29, sp, #144
	.cfi_def_cfa w29, 16
	.cfi_offset w30, -8
	.cfi_offset w29, -16
	.cfi_remember_state
	str	x0, [sp, #24]
	mov	x8, x0
	str	x8, [sp, #64]
Ltmp329:
	.loc	21 84 20 prologue_end
	bl	__ZN106_$LT$core..slice..iter..Iter$LT$T$GT$$u20$as$u20$core..iter..traits..double_ended..DoubleEndedIterator$GT$9next_back17h77c23898dd77267cE
	str	x0, [sp, #48]
Ltmp330:
	.loc	14 2296 15
	ldr	x8, [sp, #48]
	subs	x8, x8, #0
	cset	w8, eq
	and	w8, w8, #0x1
	ands	w8, w8, #0x1
	cset	x8, eq
	.loc	14 2296 9 is_stmt 0
	subs	x8, x8, #0
	cset	w8, ne
	tbnz	w8, #0, LBB34_2
	b	LBB34_1
LBB34_1:
	.loc	14 2298 21 is_stmt 1
	str	xzr, [sp, #40]
	.loc	14 2298 44 is_stmt 0
	b	LBB34_3
LBB34_2:
	.loc	14 2297 18 is_stmt 1
	ldr	x8, [sp, #48]
	stur	x8, [x29, #-64]
Ltmp331:
	.loc	14 2297 24 is_stmt 0
	str	x8, [sp, #40]
Ltmp332:
	.loc	14 2300 5 is_stmt 1
	b	LBB34_3
Ltmp333:
LBB34_3:
	.loc	21 84 20
	ldr	x9, [sp, #40]
	mov	x8, #0
	subs	x9, x9, #0
	cset	w9, eq
	and	w9, w9, #0x1
	ands	w9, w9, #0x1
	csinc	x8, x8, xzr, eq
	subs	x8, x8, #0
	cset	w8, ne
	tbnz	w8, #0, LBB34_5
	b	LBB34_4
LBB34_4:
	ldr	x8, [sp, #40]
	str	x8, [sp, #16]
	mov	x9, x8
	stur	x9, [x29, #-56]
	.loc	21 85 9
	mov	x9, x8
	stur	x9, [x29, #-48]
	.loc	21 85 22 is_stmt 0
	ldrb	w8, [x8]
	subs	w8, w8, #128
	cset	w8, lo
	tbnz	w8, #0, LBB34_8
	b	LBB34_7
LBB34_5:
Ltmp334:
	.loc	14 2309 21 is_stmt 1
	str	wzr, [sp, #32]
Ltmp335:
	.loc	22 1 1
	b	LBB34_6
LBB34_6:
	.loc	21 113 2
	b	LBB34_9
LBB34_7:
	.loc	21 0 2 is_stmt 0
	ldr	x0, [sp, #24]
	ldr	x8, [sp, #16]
	.loc	21 86 9 is_stmt 1
	ldrb	w8, [x8]
	str	w8, [sp, #8]
	sturb	w8, [x29, #-34]
Ltmp336:
	.loc	21 86 22 is_stmt 0
	sturb	w8, [x29, #-33]
Ltmp337:
	.loc	21 94 23 is_stmt 1
	bl	__ZN106_$LT$core..slice..iter..Iter$LT$T$GT$$u20$as$u20$core..iter..traits..double_ended..DoubleEndedIterator$GT$9next_back17h77c23898dd77267cE
	adrp	x1, l___unnamed_12@PAGE
	add	x1, x1, l___unnamed_12@PAGEOFF
	bl	__ZN4core6option15Option$LT$T$GT$16unwrap_unchecked17h612e7f4b47171f82E
	.loc	21 94 22 is_stmt 0
	ldrb	w8, [x0]
	str	w8, [sp, #12]
	sturb	w8, [x29, #-32]
Ltmp338:
	.loc	21 95 26 is_stmt 1
	sturb	w8, [x29, #-31]
Ltmp339:
	.loc	21 12 5
	and	w9, w8, #0x1f
	and	w9, w9, #0xff
Ltmp340:
	.loc	21 95 5
	str	w9, [sp, #60]
	.loc	21 96 26
	sturb	w8, [x29, #-30]
Ltmp341:
	.loc	21 25 5
	sxtb	w8, w8
	adds	w8, w8, #64
	cset	w8, lt
Ltmp342:
	.loc	21 96 8
	tbnz	w8, #0, LBB34_11
	b	LBB34_10
Ltmp343:
LBB34_8:
	.loc	21 0 8 is_stmt 0
	ldr	x8, [sp, #16]
	.loc	21 85 9 is_stmt 1
	ldrb	w8, [x8]
	sturb	w8, [x29, #-35]
Ltmp344:
	.loc	21 85 48 is_stmt 0
	str	w8, [sp, #36]
	mov	w8, #1
	str	w8, [sp, #32]
Ltmp345:
	.loc	22 1 1 is_stmt 1
	b	LBB34_6
LBB34_9:
	.loc	21 113 2
	ldr	w0, [sp, #32]
	ldr	w1, [sp, #36]
	.cfi_def_cfa wsp, 160
	ldp	x29, x30, [sp, #144]
	add	sp, sp, #160
	.cfi_def_cfa_offset 0
	.cfi_restore w30
	.cfi_restore w29
	ret
LBB34_10:
	.cfi_restore_state
	.loc	21 0 2 is_stmt 0
	ldr	w8, [sp, #8]
Ltmp346:
	.loc	21 110 29 is_stmt 1
	ldr	w9, [sp, #60]
	stur	w9, [x29, #-8]
	.loc	21 110 33 is_stmt 0
	sturb	w8, [x29, #-1]
Ltmp347:
	.loc	21 18 17 is_stmt 1
	and	w8, w8, #0x3f
	and	w8, w8, #0xff
	.loc	21 18 5 is_stmt 0
	orr	w8, w8, w9, lsl #6
Ltmp348:
	.loc	21 110 5 is_stmt 1
	str	w8, [sp, #60]
	.loc	21 112 10
	ldr	w8, [sp, #60]
	.loc	21 112 5 is_stmt 0
	str	w8, [sp, #36]
	mov	w8, #1
	str	w8, [sp, #32]
Ltmp349:
	.loc	21 113 2 is_stmt 1
	b	LBB34_9
LBB34_11:
	.loc	21 0 2 is_stmt 0
	ldr	x0, [sp, #24]
Ltmp350:
	.loc	21 99 27 is_stmt 1
	bl	__ZN106_$LT$core..slice..iter..Iter$LT$T$GT$$u20$as$u20$core..iter..traits..double_ended..DoubleEndedIterator$GT$9next_back17h77c23898dd77267cE
	adrp	x1, l___unnamed_13@PAGE
	add	x1, x1, l___unnamed_13@PAGEOFF
	bl	__ZN4core6option15Option$LT$T$GT$16unwrap_unchecked17h612e7f4b47171f82E
	.loc	21 99 26 is_stmt 0
	ldrb	w8, [x0]
	str	w8, [sp, #4]
	sturb	w8, [x29, #-29]
Ltmp351:
	.loc	21 100 30 is_stmt 1
	sturb	w8, [x29, #-28]
Ltmp352:
	.loc	21 12 5
	and	w9, w8, #0xf
	and	w9, w9, #0xff
Ltmp353:
	.loc	21 100 9
	str	w9, [sp, #60]
	.loc	21 101 30
	sturb	w8, [x29, #-27]
Ltmp354:
	.loc	21 25 5
	sxtb	w8, w8
	adds	w8, w8, #64
	cset	w8, lt
Ltmp355:
	.loc	21 101 12
	tbnz	w8, #0, LBB34_13
	b	LBB34_12
LBB34_12:
	.loc	21 0 12 is_stmt 0
	ldr	w8, [sp, #12]
	.loc	21 108 33 is_stmt 1
	ldr	w9, [sp, #60]
	stur	w9, [x29, #-16]
	.loc	21 108 37 is_stmt 0
	sturb	w8, [x29, #-9]
Ltmp356:
	.loc	21 18 17 is_stmt 1
	and	w8, w8, #0x3f
	and	w8, w8, #0xff
	.loc	21 18 5 is_stmt 0
	orr	w8, w8, w9, lsl #6
Ltmp357:
	.loc	21 108 9 is_stmt 1
	str	w8, [sp, #60]
Ltmp358:
	.loc	21 96 5
	b	LBB34_10
LBB34_13:
	.loc	21 0 5 is_stmt 0
	ldr	x0, [sp, #24]
Ltmp359:
	.loc	21 104 31 is_stmt 1
	bl	__ZN106_$LT$core..slice..iter..Iter$LT$T$GT$$u20$as$u20$core..iter..traits..double_ended..DoubleEndedIterator$GT$9next_back17h77c23898dd77267cE
	adrp	x1, l___unnamed_14@PAGE
	add	x1, x1, l___unnamed_14@PAGEOFF
	bl	__ZN4core6option15Option$LT$T$GT$16unwrap_unchecked17h612e7f4b47171f82E
	ldr	w8, [sp, #4]
	.loc	21 104 30 is_stmt 0
	ldrb	w9, [x0]
	sturb	w9, [x29, #-26]
Ltmp360:
	.loc	21 105 34 is_stmt 1
	sturb	w9, [x29, #-25]
Ltmp361:
	.loc	21 12 5
	and	w9, w9, #0x7
	and	w9, w9, #0xff
Ltmp362:
	.loc	21 105 13
	str	w9, [sp, #60]
	.loc	21 106 37
	ldr	w9, [sp, #60]
	stur	w9, [x29, #-24]
	.loc	21 106 41 is_stmt 0
	sturb	w8, [x29, #-17]
Ltmp363:
	.loc	21 18 17 is_stmt 1
	and	w8, w8, #0x3f
	and	w8, w8, #0xff
	.loc	21 18 5 is_stmt 0
	orr	w8, w8, w9, lsl #6
Ltmp364:
	.loc	21 106 13 is_stmt 1
	str	w8, [sp, #60]
Ltmp365:
	.loc	21 101 9
	b	LBB34_12
Ltmp366:
Lfunc_end34:
	.cfi_endproc

	.p2align	2
__ZN4core3str21_$LT$impl$u20$str$GT$12trim_matches17hf1e98d301387d2baE:
Lfunc_begin35:
	.file	23 "/rustc/c5d82ed7a4ad94a538bb87e5016e7d5ce0bd434b/library/core/src/str" "mod.rs"
	.loc	23 2044 0
	.cfi_startproc
	.cfi_personality 155, _rust_eh_personality
	.cfi_lsda 16, Lexception5
	sub	sp, sp, #272
	.cfi_def_cfa_offset 272
	stp	x28, x27, [sp, #240]
	stp	x29, x30, [sp, #256]
	add	x29, sp, #256
	.cfi_def_cfa w29, 16
	.cfi_offset w30, -8
	.cfi_offset w29, -16
	.cfi_offset w27, -24
	.cfi_offset w28, -32
	str	x0, [sp, #16]
	str	x1, [sp, #24]
	mov	x8, x0
	stur	x8, [x29, #-96]
	stur	x1, [x29, #-88]
Ltmp374:
	.loc	23 2048 21 prologue_end
	str	xzr, [sp, #40]
Ltmp375:
	.loc	23 2049 21
	str	xzr, [sp, #48]
	add	x8, sp, #56
	str	x8, [sp, #32]
Ltmp376:
	.loc	23 2050 27
	bl	__ZN49_$LT$F$u20$as$u20$core..str..pattern..Pattern$GT$13into_searcher17haeeb0b9f05273ff3E
	ldr	x0, [sp, #32]
Ltmp367:
	add	x8, sp, #96
Ltmp377:
	.loc	23 2051 31
	bl	__ZN99_$LT$core..str..pattern..CharPredicateSearcher$LT$F$GT$$u20$as$u20$core..str..pattern..Searcher$GT$11next_reject17hd9b1c25fab79e8b4E
Ltmp368:
	b	LBB35_3
Ltmp378:
LBB35_1:
	.loc	23 2044 5
	ldur	x0, [x29, #-72]
	bl	__Unwind_Resume
LBB35_2:
Ltmp373:
	.loc	23 0 5 is_stmt 0
	mov	x8, x1
	stur	x0, [x29, #-72]
	stur	w8, [x29, #-64]
	b	LBB35_1
LBB35_3:
Ltmp379:
	.loc	23 2051 16 is_stmt 1
	ldr	x8, [sp, #96]
	subs	x8, x8, #1
	cset	w8, ne
	tbnz	w8, #0, LBB35_5
	b	LBB35_4
LBB35_4:
	.loc	23 2051 22 is_stmt 0
	ldr	x9, [sp, #104]
	stur	x9, [x29, #-56]
	.loc	23 2051 25
	ldr	x8, [sp, #112]
	stur	x8, [x29, #-48]
	.loc	23 2052 13 is_stmt 1
	str	x9, [sp, #40]
	.loc	23 2053 13
	str	x8, [sp, #48]
Ltmp380:
	.loc	23 2051 9
	b	LBB35_5
LBB35_5:
Ltmp369:
	.loc	23 0 9 is_stmt 0
	add	x8, sp, #120
	add	x0, sp, #56
Ltmp381:
	.loc	23 2056 31 is_stmt 1
	bl	__ZN106_$LT$core..str..pattern..CharPredicateSearcher$LT$F$GT$$u20$as$u20$core..str..pattern..ReverseSearcher$GT$16next_reject_back17h008c246757a3e829E
Ltmp370:
	b	LBB35_6
LBB35_6:
	.loc	23 2056 16 is_stmt 0
	ldr	x8, [sp, #120]
	subs	x8, x8, #1
	cset	w8, ne
	tbnz	w8, #0, LBB35_8
	b	LBB35_7
LBB35_7:
	.loc	23 2056 25
	ldr	x8, [sp, #136]
	stur	x8, [x29, #-40]
	.loc	23 2057 13 is_stmt 1
	str	x8, [sp, #48]
Ltmp382:
	.loc	23 2056 9
	b	LBB35_8
LBB35_8:
	.loc	23 0 9 is_stmt 0
	ldr	x3, [sp, #24]
	ldr	x2, [sp, #16]
	.loc	23 2060 18 is_stmt 1
	mov	x8, x2
	stur	x8, [x29, #-32]
	stur	x3, [x29, #-24]
	.loc	23 2060 37 is_stmt 0
	ldr	x9, [sp, #40]
	.loc	23 2060 40
	ldr	x8, [sp, #48]
	.loc	23 2060 37
	stur	x9, [x29, #-112]
	stur	x8, [x29, #-104]
Ltmp383:
	.loc	23 511 20 is_stmt 1
	ldur	x0, [x29, #-112]
	ldur	x1, [x29, #-104]
Ltmp371:
	bl	__ZN4core3str6traits108_$LT$impl$u20$core..slice..index..SliceIndex$LT$str$GT$$u20$for$u20$core..ops..range..Range$LT$usize$GT$$GT$13get_unchecked17h046b101253fc613aE
	str	x0, [sp]
	str	x1, [sp, #8]
Ltmp372:
	b	LBB35_9
Ltmp384:
LBB35_9:
	.loc	23 0 20 is_stmt 0
	ldr	x1, [sp, #8]
	ldr	x0, [sp]
	.cfi_def_cfa wsp, 272
	.loc	23 2061 6 is_stmt 1
	ldp	x29, x30, [sp, #256]
	ldp	x28, x27, [sp, #240]
	add	sp, sp, #272
	.cfi_def_cfa_offset 0
	.cfi_restore w30
	.cfi_restore w29
	.cfi_restore w27
	.cfi_restore w28
	ret
Ltmp385:
Lfunc_end35:
	.cfi_endproc
	.section	__TEXT,__gcc_except_tab
	.p2align	2
GCC_except_table35:
Lexception5:
	.byte	255
	.byte	255
	.byte	1
	.uleb128 Lcst_end5-Lcst_begin5
Lcst_begin5:
	.uleb128 Lfunc_begin35-Lfunc_begin35
	.uleb128 Ltmp367-Lfunc_begin35
	.byte	0
	.byte	0
	.uleb128 Ltmp367-Lfunc_begin35
	.uleb128 Ltmp368-Ltmp367
	.uleb128 Ltmp373-Lfunc_begin35
	.byte	0
	.uleb128 Ltmp368-Lfunc_begin35
	.uleb128 Ltmp369-Ltmp368
	.byte	0
	.byte	0
	.uleb128 Ltmp369-Lfunc_begin35
	.uleb128 Ltmp372-Ltmp369
	.uleb128 Ltmp373-Lfunc_begin35
	.byte	0
Lcst_end5:
	.p2align	2

	.section	__TEXT,__text,regular,pure_instructions
	.p2align	2
__ZN4core3str21_$LT$impl$u20$str$GT$4trim17h59c4ddee6d919106E:
Lfunc_begin36:
	.loc	23 1853 0
	.cfi_startproc
	sub	sp, sp, #32
	.cfi_def_cfa_offset 32
	stp	x29, x30, [sp, #16]
	add	x29, sp, #16
	.cfi_def_cfa w29, 16
	.cfi_offset w30, -8
	.cfi_offset w29, -16
	mov	x8, x0
	str	x8, [sp]
	str	x1, [sp, #8]
Ltmp386:
	.loc	23 1854 9 prologue_end
	bl	__ZN4core3str21_$LT$impl$u20$str$GT$12trim_matches17hf1e98d301387d2baE
	.cfi_def_cfa wsp, 32
	.loc	23 1855 6
	ldp	x29, x30, [sp, #16]
	add	sp, sp, #32
	.cfi_def_cfa_offset 0
	.cfi_restore w30
	.cfi_restore w29
	ret
Ltmp387:
Lfunc_end36:
	.cfi_endproc

	.p2align	2
__ZN4core3str21_$LT$impl$u20$str$GT$4trim28_$u7b$$u7b$closure$u7d$$u7d$17hb36e6d0031c2863fE:
Lfunc_begin37:
	.loc	23 1854 0
	.cfi_startproc
	sub	sp, sp, #32
	.cfi_def_cfa_offset 32
	stp	x29, x30, [sp, #16]
	add	x29, sp, #16
	.cfi_def_cfa w29, 16
	.cfi_offset w30, -8
	.cfi_offset w29, -16
	mov	x8, x0
	mov	x0, x1
	str	x8, [sp]
	stur	w0, [x29, #-4]
Ltmp388:
	.loc	23 1854 37 prologue_end
	bl	__ZN4core4char7methods22_$LT$impl$u20$char$GT$13is_whitespace17ha4e607ea3489191aE
	.loc	23 1854 54 is_stmt 0
	and	w0, w0, #0x1
	.cfi_def_cfa wsp, 32
	ldp	x29, x30, [sp, #16]
	add	sp, sp, #32
	.cfi_def_cfa_offset 0
	.cfi_restore w30
	.cfi_restore w29
	ret
Ltmp389:
Lfunc_end37:
	.cfi_endproc

	.p2align	2
__ZN4core3str21_$LT$impl$u20$str$GT$5parse17h077d65e26ec0d31cE:
Lfunc_begin38:
	.loc	23 2338 0 is_stmt 1
	.cfi_startproc
	sub	sp, sp, #48
	.cfi_def_cfa_offset 48
	stp	x29, x30, [sp, #32]
	add	x29, sp, #32
	.cfi_def_cfa w29, 16
	.cfi_offset w30, -8
	.cfi_offset w29, -16
	mov	x8, x0
	str	x8, [sp, #8]
	str	x1, [sp, #16]
Ltmp390:
	.loc	23 2339 9 prologue_end
	bl	__ZN4core3num60_$LT$impl$u20$core..str..traits..FromStr$u20$for$u20$i32$GT$8from_str17h301b26fabba10366E
	stur	x0, [x29, #-8]
	ldur	x8, [x29, #-8]
	str	x8, [sp]
	.loc	23 2340 6
	ldr	x0, [sp]
	.cfi_def_cfa wsp, 48
	ldp	x29, x30, [sp, #32]
	add	sp, sp, #48
	.cfi_def_cfa_offset 0
	.cfi_restore w30
	.cfi_restore w29
	ret
Ltmp391:
Lfunc_end38:
	.cfi_endproc

	.p2align	2
__ZN4core3str6traits108_$LT$impl$u20$core..slice..index..SliceIndex$LT$str$GT$$u20$for$u20$core..ops..range..Range$LT$usize$GT$$GT$13get_unchecked17h046b101253fc613aE:
Lfunc_begin39:
	.file	24 "/rustc/c5d82ed7a4ad94a538bb87e5016e7d5ce0bd434b/library/core/src/str" "traits.rs"
	.loc	24 197 0
	.cfi_startproc
	sub	sp, sp, #192
	.cfi_def_cfa_offset 192
	str	x0, [sp, #32]
	str	x1, [sp, #40]
	str	x2, [sp, #48]
	str	x3, [sp, #56]
Ltmp393:
	.loc	24 198 21 prologue_end
	str	x2, [sp, #64]
	str	x3, [sp, #72]
Ltmp394:
	.loc	24 201 28
	str	x2, [sp, #80]
	str	x3, [sp, #88]
Ltmp395:
	.loc	4 1648 9
	str	x2, [sp, #96]
Ltmp396:
	.loc	24 201 47
	str	x0, [sp, #104]
Ltmp397:
	.loc	4 915 18
	str	x2, [sp, #112]
	.loc	4 915 30 is_stmt 0
	str	x0, [sp, #120]
Ltmp398:
	.loc	4 456 18 is_stmt 1
	add	x8, x2, x0
	str	x8, [sp, #128]
	ldr	x9, [sp, #128]
	str	x9, [sp, #136]
Ltmp399:
	.loc	24 202 19
	subs	x8, x1, x0
	str	x8, [sp, #144]
Ltmp400:
	.loc	24 203 35
	str	x9, [sp, #152]
	.loc	24 203 40 is_stmt 0
	str	x8, [sp, #160]
Ltmp401:
	.loc	20 710 20 is_stmt 1
	str	x9, [sp, #168]
Ltmp402:
	.loc	4 50 9
	str	x9, [sp, #176]
Ltmp403:
	.loc	20 710 33
	str	x8, [sp, #184]
Ltmp404:
	.loc	9 118 36
	str	x9, [sp, #16]
	str	x8, [sp, #24]
	.loc	9 118 14 is_stmt 0
	ldr	x9, [sp, #16]
	ldr	x8, [sp, #24]
	str	x9, [sp]
	str	x8, [sp, #8]
	ldr	x0, [sp]
	ldr	x1, [sp, #8]
Ltmp405:
	.loc	24 204 6 is_stmt 1
	add	sp, sp, #192
	.cfi_def_cfa_offset 0
	ret
Ltmp406:
Lfunc_end39:
	.cfi_endproc

	.p2align	2
__ZN4core3str6traits54_$LT$impl$u20$core..cmp..PartialEq$u20$for$u20$str$GT$2eq17heedce7af6d6a1d87E:
Lfunc_begin40:
	.loc	24 28 0
	.cfi_startproc
	sub	sp, sp, #128
	.cfi_def_cfa_offset 128
	stp	x29, x30, [sp, #112]
	add	x29, sp, #112
	.cfi_def_cfa w29, 16
	.cfi_offset w30, -8
	.cfi_offset w29, -16
	mov	x8, x0
	str	x8, [sp, #32]
	str	x1, [sp, #40]
	mov	x8, x2
	str	x8, [sp, #48]
	str	x3, [sp, #56]
Ltmp407:
	.loc	24 29 9 prologue_end
	mov	x8, x0
	stur	x8, [x29, #-48]
	stur	x1, [x29, #-40]
	mov	x8, sp
Ltmp408:
	.loc	23 327 18
	str	x0, [sp]
	str	x1, [sp, #8]
Ltmp409:
	.loc	24 29 9
	stur	x8, [x29, #-32]
	.loc	24 29 28 is_stmt 0
	mov	x8, x2
	stur	x8, [x29, #-24]
	stur	x3, [x29, #-16]
	add	x8, sp, #16
Ltmp410:
	.loc	23 327 18 is_stmt 1
	str	x2, [sp, #16]
	str	x3, [sp, #24]
Ltmp411:
	.loc	24 29 28
	stur	x8, [x29, #-8]
Ltmp412:
	.file	25 "/rustc/c5d82ed7a4ad94a538bb87e5016e7d5ce0bd434b/library/core/src" "cmp.rs"
	.loc	25 1554 27
	ldr	x0, [sp]
	ldr	x1, [sp, #8]
	.loc	25 1554 34 is_stmt 0
	ldr	x2, [sp, #16]
	ldr	x3, [sp, #24]
	.loc	25 1554 13
	bl	__ZN4core5slice3cmp81_$LT$impl$u20$core..cmp..PartialEq$LT$$u5b$B$u5d$$GT$$u20$for$u20$$u5b$A$u5d$$GT$2eq17he928f942f3c8a3baE
Ltmp413:
	.loc	24 30 6 is_stmt 1
	and	w0, w0, #0x1
	.cfi_def_cfa wsp, 128
	ldp	x29, x30, [sp, #112]
	add	sp, sp, #128
	.cfi_def_cfa_offset 0
	.cfi_restore w30
	.cfi_restore w29
	ret
Ltmp414:
Lfunc_end40:
	.cfi_endproc

	.p2align	2
__ZN4core3str7pattern15ReverseSearcher16next_reject_back17h6f3bcdf5a6bc8e29E:
Lfunc_begin41:
	.loc	8 313 0
	.cfi_startproc
	sub	sp, sp, #112
	.cfi_def_cfa_offset 112
	stp	x29, x30, [sp, #96]
	add	x29, sp, #96
	.cfi_def_cfa w29, 16
	.cfi_offset w30, -8
	.cfi_offset w29, -16
	str	x8, [sp, #16]
	str	x0, [sp, #24]
	stur	x0, [x29, #-24]
Ltmp415:
	.loc	8 314 9 prologue_end
	b	LBB41_1
LBB41_1:
	.loc	8 0 9 is_stmt 0
	ldr	x0, [sp, #24]
	add	x8, sp, #32
	.loc	8 315 19 is_stmt 1
	bl	__ZN104_$LT$core..str..pattern..MultiCharEqSearcher$LT$C$GT$$u20$as$u20$core..str..pattern..ReverseSearcher$GT$9next_back17h5cb6daf4dcd8481eE
	ldr	x8, [sp, #32]
	str	x8, [sp, #8]
	.loc	8 315 13 is_stmt 0
	subs	x8, x8, #1
	cset	w8, eq
	tbnz	w8, #0, LBB41_4
	b	LBB41_2
LBB41_2:
	.loc	8 0 13
	ldr	x8, [sp, #8]
	.loc	8 315 13
	subs	x8, x8, #2
	cset	w8, eq
	tbnz	w8, #0, LBB41_5
	b	LBB41_3
LBB41_3:
	.loc	22 1 1 is_stmt 1
	b	LBB41_1
LBB41_4:
	.loc	22 0 1 is_stmt 0
	ldr	x9, [sp, #16]
	.loc	8 316 36 is_stmt 1
	ldr	x10, [sp, #40]
	stur	x10, [x29, #-16]
	.loc	8 316 39 is_stmt 0
	ldr	x8, [sp, #48]
	stur	x8, [x29, #-8]
Ltmp416:
	.loc	8 316 57
	stur	x10, [x29, #-40]
	stur	x8, [x29, #-32]
	.loc	8 316 52
	ldur	x10, [x29, #-40]
	ldur	x8, [x29, #-32]
	str	x10, [x9, #8]
	str	x8, [x9, #16]
	mov	w8, #1
	str	x8, [x9]
Ltmp417:
	.loc	22 1 1 is_stmt 1
	b	LBB41_6
LBB41_5:
	.loc	22 0 1 is_stmt 0
	ldr	x8, [sp, #16]
	.loc	8 317 44 is_stmt 1
	str	xzr, [x8]
	.loc	8 317 37 is_stmt 0
	b	LBB41_6
LBB41_6:
	.cfi_def_cfa wsp, 112
	.loc	8 321 6 is_stmt 1
	ldp	x29, x30, [sp, #96]
	add	sp, sp, #112
	.cfi_def_cfa_offset 0
	.cfi_restore w30
	.cfi_restore w29
	ret
Ltmp418:
Lfunc_end41:
	.cfi_endproc

	.p2align	2
__ZN4core3str7pattern8Searcher11next_reject17h3c600fbefc7a58e0E:
Lfunc_begin42:
	.loc	8 248 0
	.cfi_startproc
	sub	sp, sp, #112
	.cfi_def_cfa_offset 112
	stp	x29, x30, [sp, #96]
	add	x29, sp, #96
	.cfi_def_cfa w29, 16
	.cfi_offset w30, -8
	.cfi_offset w29, -16
	str	x8, [sp, #16]
	str	x0, [sp, #24]
	stur	x0, [x29, #-24]
Ltmp419:
	.loc	8 249 9 prologue_end
	b	LBB42_1
LBB42_1:
	.loc	8 0 9 is_stmt 0
	ldr	x0, [sp, #24]
	add	x8, sp, #32
	.loc	8 250 19 is_stmt 1
	bl	__ZN97_$LT$core..str..pattern..MultiCharEqSearcher$LT$C$GT$$u20$as$u20$core..str..pattern..Searcher$GT$4next17ha61745a98d825cb6E
	ldr	x8, [sp, #32]
	str	x8, [sp, #8]
	.loc	8 250 13 is_stmt 0
	subs	x8, x8, #1
	cset	w8, eq
	tbnz	w8, #0, LBB42_4
	b	LBB42_2
LBB42_2:
	.loc	8 0 13
	ldr	x8, [sp, #8]
	.loc	8 250 13
	subs	x8, x8, #2
	cset	w8, eq
	tbnz	w8, #0, LBB42_5
	b	LBB42_3
LBB42_3:
	.loc	22 1 1 is_stmt 1
	b	LBB42_1
LBB42_4:
	.loc	22 0 1 is_stmt 0
	ldr	x9, [sp, #16]
	.loc	8 251 36 is_stmt 1
	ldr	x10, [sp, #40]
	stur	x10, [x29, #-16]
	.loc	8 251 39 is_stmt 0
	ldr	x8, [sp, #48]
	stur	x8, [x29, #-8]
Ltmp420:
	.loc	8 251 57
	stur	x10, [x29, #-40]
	stur	x8, [x29, #-32]
	.loc	8 251 52
	ldur	x10, [x29, #-40]
	ldur	x8, [x29, #-32]
	str	x10, [x9, #8]
	str	x8, [x9, #16]
	mov	w8, #1
	str	x8, [x9]
Ltmp421:
	.loc	22 1 1 is_stmt 1
	b	LBB42_6
LBB42_5:
	.loc	22 0 1 is_stmt 0
	ldr	x8, [sp, #16]
	.loc	8 252 44 is_stmt 1
	str	xzr, [x8]
	.loc	8 252 37 is_stmt 0
	b	LBB42_6
LBB42_6:
	.cfi_def_cfa wsp, 112
	.loc	8 256 6 is_stmt 1
	ldp	x29, x30, [sp, #96]
	add	sp, sp, #112
	.cfi_def_cfa_offset 0
	.cfi_restore w30
	.cfi_restore w29
	ret
Ltmp422:
Lfunc_end42:
	.cfi_endproc

	.p2align	2
__ZN4core4char7methods22_$LT$impl$u20$char$GT$13is_whitespace17ha4e607ea3489191aE:
Lfunc_begin43:
	.file	26 "/rustc/c5d82ed7a4ad94a538bb87e5016e7d5ce0bd434b/library/core/src/char" "methods.rs"
	.loc	26 840 0
	.cfi_startproc
	sub	sp, sp, #32
	.cfi_def_cfa_offset 32
	stp	x29, x30, [sp, #16]
	add	x29, sp, #16
	.cfi_def_cfa w29, 16
	.cfi_offset w30, -8
	.cfi_offset w29, -16
	str	w0, [sp]
	str	w0, [sp, #8]
Ltmp423:
	.loc	26 841 9 prologue_end
	subs	w8, w0, #32
	cset	w8, ne
	tbnz	w8, #0, LBB43_2
	b	LBB43_1
LBB43_1:
	.loc	26 0 9 is_stmt 0
	mov	w8, #1
	.loc	26 842 38 is_stmt 1
	strb	w8, [sp, #7]
	b	LBB43_8
LBB43_2:
	.loc	26 0 38 is_stmt 0
	ldr	w9, [sp]
	mov	w8, #9
	.loc	26 842 19
	subs	w8, w8, w9
	cset	w8, ls
	tbnz	w8, #0, LBB43_4
	b	LBB43_3
LBB43_3:
	.loc	26 0 19
	ldr	w8, [sp]
	.loc	26 843 13 is_stmt 1
	stur	w8, [x29, #-4]
Ltmp424:
	.loc	26 843 18 is_stmt 0
	subs	w8, w8, #127
	cset	w8, hi
	tbnz	w8, #0, LBB43_6
	b	LBB43_5
Ltmp425:
LBB43_4:
	.loc	26 0 18
	ldr	w8, [sp]
	.loc	26 842 19 is_stmt 1
	subs	w8, w8, #13
	cset	w8, ls
	tbnz	w8, #0, LBB43_1
	b	LBB43_3
LBB43_5:
Ltmp426:
	.loc	26 843 18
	strb	wzr, [sp, #7]
	b	LBB43_7
LBB43_6:
	.loc	26 0 18 is_stmt 0
	ldr	w0, [sp]
	.loc	26 843 32
	bl	__ZN4core7unicode12unicode_data11white_space6lookup17h111c4172687223e9E
	.loc	26 843 18
	and	w8, w0, #0x1
	strb	w8, [sp, #7]
	b	LBB43_7
Ltmp427:
LBB43_7:
	.loc	26 843 54
	b	LBB43_8
LBB43_8:
	.loc	26 845 6 is_stmt 1
	ldrb	w8, [sp, #7]
	and	w0, w8, #0x1
	.cfi_def_cfa wsp, 32
	ldp	x29, x30, [sp, #16]
	add	sp, sp, #32
	.cfi_def_cfa_offset 0
	.cfi_restore w30
	.cfi_restore w29
	ret
Ltmp428:
Lfunc_end43:
	.cfi_endproc

	.p2align	2
__ZN4core4hint21unreachable_unchecked17ha191291e9bea9d11E:
Lfunc_begin44:
	.loc	12 100 0
	.cfi_startproc
	.loc	12 104 9 prologue_end
	brk	#0x1
Ltmp429:
Lfunc_end44:
	.cfi_endproc

	.p2align	2
__ZN4core5alloc6layout6Layout5array5inner17h17186c98d87873fbE:
Lfunc_begin45:
	.file	27 "/rustc/c5d82ed7a4ad94a538bb87e5016e7d5ce0bd434b/library/core/src/alloc" "layout.rs"
	.loc	27 431 0
	.cfi_startproc
	sub	sp, sp, #192
	.cfi_def_cfa_offset 192
	stp	x29, x30, [sp, #176]
	add	x29, sp, #176
	.cfi_def_cfa w29, 16
	.cfi_offset w30, -8
	.cfi_offset w29, -16
	str	x0, [sp, #8]
	str	x1, [sp, #16]
	str	x2, [sp, #24]
	str	x0, [sp, #88]
	stur	x1, [x29, #-80]
	stur	x2, [x29, #-72]
Ltmp430:
	.loc	27 438 16 prologue_end
	subs	x8, x0, #0
	cset	w8, ne
	tbnz	w8, #0, LBB45_2
	b	LBB45_1
LBB45_1:
	strb	wzr, [sp, #55]
	b	LBB45_5
LBB45_2:
	.loc	27 0 16 is_stmt 0
	ldr	x8, [sp, #8]
	ldr	x9, [sp, #16]
	.loc	27 438 68
	stur	x9, [x29, #-64]
Ltmp431:
	.loc	27 93 32 is_stmt 1
	stur	x9, [x29, #-56]
Ltmp432:
	.file	28 "/rustc/c5d82ed7a4ad94a538bb87e5016e7d5ce0bd434b/library/core/src/ptr" "alignment.rs"
	.loc	28 96 9
	str	x9, [sp, #72]
	ldr	x9, [sp, #72]
Ltmp433:
	.loc	27 93 31
	subs	x10, x9, #1
	mov	x9, #9223372036854775807
	.loc	27 93 9 is_stmt 0
	subs	x9, x9, x10
	str	x9, [sp]
Ltmp434:
	.loc	27 438 41 is_stmt 1
	subs	x8, x8, #0
	cset	w8, eq
	tbnz	w8, #0, LBB45_4
	b	LBB45_3
LBB45_3:
	.loc	27 0 41 is_stmt 0
	ldr	x8, [sp, #24]
	ldr	x9, [sp]
	ldr	x10, [sp, #8]
	.loc	27 438 41
	udiv	x9, x9, x10
	.loc	27 438 37
	subs	x8, x8, x9
	cset	w8, hi
	.loc	27 438 16
	and	w8, w8, #0x1
	strb	w8, [sp, #55]
	b	LBB45_5
LBB45_4:
	.loc	27 0 16
	adrp	x0, _str.0@PAGE
	add	x0, x0, _str.0@PAGEOFF
	mov	w8, #25
	mov	x1, x8
	adrp	x2, l___unnamed_15@PAGE
	add	x2, x2, l___unnamed_15@PAGEOFF
	.loc	27 438 41
	bl	__ZN4core9panicking5panic17h77e4e51e80f61eb1E
LBB45_5:
	.loc	27 438 16
	ldrb	w8, [sp, #55]
	tbnz	w8, #0, LBB45_7
	b	LBB45_6
LBB45_6:
	.loc	27 0 16
	ldr	x8, [sp, #16]
	ldr	x9, [sp, #8]
	ldr	x10, [sp, #24]
	.loc	27 442 30 is_stmt 1
	mul	x9, x9, x10
	stur	x9, [x29, #-48]
Ltmp435:
	.loc	27 447 59
	stur	x9, [x29, #-40]
	.loc	27 447 71 is_stmt 0
	stur	x8, [x29, #-32]
Ltmp436:
	.loc	28 96 9 is_stmt 1
	str	x8, [sp, #80]
	ldr	x8, [sp, #80]
	stur	x8, [x29, #-24]
Ltmp437:
	.loc	27 120 65
	stur	x8, [x29, #-16]
Ltmp438:
	.loc	28 88 18
	stur	x8, [x29, #-8]
	ldur	x8, [x29, #-8]
Ltmp439:
	.loc	27 120 18
	str	x9, [sp, #56]
	str	x8, [sp, #64]
Ltmp440:
	.loc	27 447 22
	ldr	x9, [sp, #56]
	ldr	x8, [sp, #64]
	str	x9, [sp, #32]
	str	x8, [sp, #40]
Ltmp441:
	.loc	27 448 10
	b	LBB45_8
LBB45_7:
	.loc	27 439 24
	str	xzr, [sp, #40]
	.loc	27 448 10
	b	LBB45_8
LBB45_8:
	ldr	x0, [sp, #32]
	ldr	x1, [sp, #40]
	.cfi_def_cfa wsp, 192
	ldp	x29, x30, [sp, #176]
	add	sp, sp, #192
	.cfi_def_cfa_offset 0
	.cfi_restore w30
	.cfi_restore w29
	ret
Ltmp442:
Lfunc_end45:
	.cfi_endproc

	.p2align	2
__ZN4core5slice3cmp81_$LT$impl$u20$core..cmp..PartialEq$LT$$u5b$B$u5d$$GT$$u20$for$u20$$u5b$A$u5d$$GT$2eq17he928f942f3c8a3baE:
Lfunc_begin46:
	.file	29 "/rustc/c5d82ed7a4ad94a538bb87e5016e7d5ce0bd434b/library/core/src/slice" "cmp.rs"
	.loc	29 25 0
	.cfi_startproc
	sub	sp, sp, #48
	.cfi_def_cfa_offset 48
	stp	x29, x30, [sp, #32]
	add	x29, sp, #32
	.cfi_def_cfa w29, 16
	.cfi_offset w30, -8
	.cfi_offset w29, -16
	mov	x8, x0
	str	x8, [sp]
	str	x1, [sp, #8]
	mov	x8, x2
	str	x8, [sp, #16]
	str	x3, [sp, #24]
Ltmp443:
	.loc	29 26 9 prologue_end
	bl	__ZN73_$LT$$u5b$A$u5d$$u20$as$u20$core..slice..cmp..SlicePartialEq$LT$B$GT$$GT$5equal17h0e513296229e3a89E
	.loc	29 27 6
	and	w0, w0, #0x1
	.cfi_def_cfa wsp, 48
	ldp	x29, x30, [sp, #32]
	add	sp, sp, #48
	.cfi_def_cfa_offset 0
	.cfi_restore w30
	.cfi_restore w29
	ret
Ltmp444:
Lfunc_end46:
	.cfi_endproc

	.p2align	2
__ZN4core5slice4iter13Iter$LT$T$GT$3new17h7bafec2af9bfe131E:
Lfunc_begin47:
	.loc	7 88 0
	.cfi_startproc
	sub	sp, sp, #272
	.cfi_def_cfa_offset 272
	stp	x28, x27, [sp, #240]
	stp	x29, x30, [sp, #256]
	add	x29, sp, #256
	.cfi_def_cfa w29, 16
	.cfi_offset w30, -8
	.cfi_offset w29, -16
	.cfi_offset w27, -24
	.cfi_offset w28, -32
	str	x0, [sp, #8]
	str	x1, [sp, #16]
	str	x0, [sp, #72]
	str	x1, [sp, #80]
Ltmp445:
	.loc	7 89 19 prologue_end
	str	x0, [sp, #96]
	str	x1, [sp, #104]
Ltmp446:
	.file	30 "/rustc/c5d82ed7a4ad94a538bb87e5016e7d5ce0bd434b/library/core/src/slice" "mod.rs"
	.loc	30 470 9
	str	x0, [sp, #112]
Ltmp447:
	.loc	7 92 21
	bl	__ZN4core3ptr9const_ptr33_$LT$impl$u20$$BP$const$u20$T$GT$7is_null17hba248d6a37fcefdaE
	mov	w8, #0
	.loc	7 95 20
	tbnz	w8, #0, LBB47_2
	b	LBB47_1
LBB47_1:
	.loc	7 0 20 is_stmt 0
	ldr	x8, [sp, #8]
	ldr	x9, [sp, #16]
	.loc	7 95 76
	stur	x8, [x29, #-56]
	.loc	7 95 84
	stur	x9, [x29, #-48]
Ltmp448:
	.loc	4 915 18 is_stmt 1
	stur	x8, [x29, #-40]
	.loc	4 915 30 is_stmt 0
	stur	x9, [x29, #-32]
Ltmp449:
	.loc	4 456 18 is_stmt 1
	add	x8, x8, x9
	str	x8, [sp, #40]
Ltmp450:
	.loc	7 95 17
	b	LBB47_3
LBB47_2:
	.loc	7 0 17 is_stmt 0
	ldr	x8, [sp, #8]
	ldr	x9, [sp, #16]
	.loc	7 95 32
	str	x8, [sp, #120]
	.loc	7 95 54
	str	x9, [sp, #128]
Ltmp451:
	.loc	4 1101 9 is_stmt 1
	stur	x8, [x29, #-120]
Ltmp452:
	.loc	4 50 9
	stur	x8, [x29, #-112]
Ltmp453:
	.loc	4 1101 40
	stur	x9, [x29, #-104]
Ltmp454:
	.loc	4 1083 9
	stur	x8, [x29, #-96]
	.loc	4 1083 30 is_stmt 0
	stur	x9, [x29, #-88]
Ltmp455:
	.loc	4 538 18 is_stmt 1
	add	x8, x8, x9
	stur	x8, [x29, #-80]
	ldur	x8, [x29, #-80]
	stur	x8, [x29, #-72]
Ltmp456:
	.loc	4 89 29
	stur	x8, [x29, #-64]
Ltmp457:
	.loc	9 118 36
	str	x8, [sp, #64]
	.loc	9 118 14 is_stmt 0
	ldr	x8, [sp, #64]
	str	x8, [sp, #56]
	ldr	x8, [sp, #56]
	str	x8, [sp, #40]
Ltmp458:
	.loc	7 95 17 is_stmt 1
	b	LBB47_3
LBB47_3:
	.loc	7 0 17 is_stmt 0
	ldr	x8, [sp, #8]
Ltmp459:
	.loc	7 97 48 is_stmt 1
	stur	x8, [x29, #-24]
Ltmp460:
	.loc	5 201 13
	str	x8, [sp, #48]
Ltmp461:
	.loc	7 97 64
	ldr	x8, [sp, #40]
	.loc	7 97 13 is_stmt 0
	ldr	x9, [sp, #48]
	str	x9, [sp, #24]
	str	x8, [sp, #32]
Ltmp462:
	.loc	7 99 6 is_stmt 1
	ldr	x0, [sp, #24]
	ldr	x1, [sp, #32]
	.cfi_def_cfa wsp, 272
	ldp	x29, x30, [sp, #256]
	ldp	x28, x27, [sp, #240]
	add	sp, sp, #272
	.cfi_def_cfa_offset 0
	.cfi_restore w30
	.cfi_restore w29
	.cfi_restore w27
	.cfi_restore w28
	ret
Ltmp463:
Lfunc_end47:
	.cfi_endproc

	.p2align	2
__ZN4core6option15Option$LT$T$GT$16unwrap_unchecked17h612e7f4b47171f82E:
Lfunc_begin48:
	.loc	14 888 0
	.cfi_startproc
	.cfi_personality 155, _rust_eh_personality
	.cfi_lsda 16, Lexception6
	sub	sp, sp, #48
	.cfi_def_cfa_offset 48
	stp	x29, x30, [sp, #32]
	add	x29, sp, #32
	.cfi_def_cfa w29, 16
	.cfi_offset w30, -8
	.cfi_offset w29, -16
	.cfi_remember_state
	str	x0, [sp]
Ltmp467:
	.loc	14 890 15 prologue_end
	ldr	x8, [sp]
	subs	x8, x8, #0
	cset	w8, eq
	and	w8, w8, #0x1
	ands	w8, w8, #0x1
	cset	x8, eq
	.loc	14 890 9 is_stmt 0
	subs	x8, x8, #0
	cset	w8, ne
	tbnz	w8, #0, LBB48_2
	b	LBB48_1
LBB48_1:
Ltmp464:
	.loc	14 893 30 is_stmt 1
	bl	__ZN4core4hint21unreachable_unchecked17ha191291e9bea9d11E
Ltmp465:
	b	LBB48_5
LBB48_2:
	.loc	14 891 18
	ldr	x0, [sp]
	str	x0, [sp, #8]
	.cfi_def_cfa wsp, 48
	.loc	14 895 6
	ldp	x29, x30, [sp, #32]
	add	sp, sp, #48
	.cfi_def_cfa_offset 0
	.cfi_restore w30
	.cfi_restore w29
	ret
LBB48_3:
	.cfi_restore_state
	.loc	14 895 5 is_stmt 0
	ldr	x8, [sp]
	subs	x8, x8, #0
	cset	w8, eq
	and	w8, w8, #0x1
	ands	w8, w8, #0x1
	cset	x8, eq
	subs	x8, x8, #1
	cset	w8, eq
	tbnz	w8, #0, LBB48_6
	b	LBB48_7
LBB48_4:
Ltmp466:
	.loc	14 0 5
	mov	x8, x1
	str	x0, [sp, #16]
	str	w8, [sp, #24]
	b	LBB48_3
LBB48_5:
	brk	#0x1
LBB48_6:
	mov	w8, #1
	.loc	14 895 5
	tbnz	w8, #0, LBB48_8
	b	LBB48_7
LBB48_7:
	.loc	14 888 5 is_stmt 1
	ldr	x0, [sp, #16]
	bl	__Unwind_Resume
LBB48_8:
	.loc	14 895 5
	b	LBB48_7
Ltmp468:
Lfunc_end48:
	.cfi_endproc
	.section	__TEXT,__gcc_except_tab
	.p2align	2
GCC_except_table48:
Lexception6:
	.byte	255
	.byte	255
	.byte	1
	.uleb128 Lcst_end6-Lcst_begin6
Lcst_begin6:
	.uleb128 Ltmp464-Lfunc_begin48
	.uleb128 Ltmp465-Ltmp464
	.uleb128 Ltmp466-Lfunc_begin48
	.byte	0
	.uleb128 Ltmp465-Lfunc_begin48
	.uleb128 Lfunc_end48-Ltmp465
	.byte	0
	.byte	0
Lcst_end6:
	.p2align	2

	.section	__TEXT,__text,regular,pure_instructions
	.p2align	2
__ZN4core6option15Option$LT$T$GT$3map17h3d783245c9f62e96E:
Lfunc_begin49:
	.loc	14 919 0
	.cfi_startproc
	sub	sp, sp, #48
	.cfi_def_cfa_offset 48
	stp	x29, x30, [sp, #32]
	add	x29, sp, #32
	.cfi_def_cfa w29, 16
	.cfi_offset w30, -8
	.cfi_offset w29, -16
	.cfi_remember_state
	str	w0, [sp, #8]
	str	w1, [sp, #12]
	mov	w8, #1
Ltmp469:
	.loc	14 924 15 prologue_end
	sturb	w8, [x29, #-6]
	ldr	w8, [sp, #8]
	.loc	14 924 9 is_stmt 0
	subs	x8, x8, #0
	cset	w8, ne
	tbnz	w8, #0, LBB49_2
	b	LBB49_1
LBB49_1:
	.loc	14 0 9
	mov	w8, #1114112
	.loc	14 926 21 is_stmt 1
	str	w8, [sp, #16]
	b	LBB49_3
LBB49_2:
	.loc	14 925 18
	ldr	w8, [sp, #12]
	stur	w8, [x29, #-4]
Ltmp470:
	.loc	14 925 29 is_stmt 0
	sturb	wzr, [x29, #-6]
	stur	w8, [x29, #-12]
	ldur	w0, [x29, #-12]
	bl	__ZN96_$LT$core..str..iter..Chars$u20$as$u20$core..iter..traits..double_ended..DoubleEndedIterator$GT$9next_back28_$u7b$$u7b$closure$u7d$$u7d$17hf7c3906cd17b32c5E
	.loc	14 925 24
	str	w0, [sp, #16]
Ltmp471:
	.loc	14 925 33
	b	LBB49_3
LBB49_3:
	.loc	14 928 5 is_stmt 1
	ldurb	w8, [x29, #-6]
	tbnz	w8, #0, LBB49_5
	b	LBB49_4
LBB49_4:
	.loc	14 928 6 is_stmt 0
	ldr	w0, [sp, #16]
	.cfi_def_cfa wsp, 48
	ldp	x29, x30, [sp, #32]
	add	sp, sp, #48
	.cfi_def_cfa_offset 0
	.cfi_restore w30
	.cfi_restore w29
	ret
LBB49_5:
	.cfi_restore_state
	.loc	14 928 5
	b	LBB49_4
Ltmp472:
Lfunc_end49:
	.cfi_endproc

	.p2align	2
__ZN4core6option15Option$LT$T$GT$3map17h6d3e4b14d9eabdc5E:
Lfunc_begin50:
	.loc	14 919 0 is_stmt 1
	.cfi_startproc
	sub	sp, sp, #96
	.cfi_def_cfa_offset 96
	stp	x29, x30, [sp, #80]
	add	x29, sp, #80
	.cfi_def_cfa w29, 16
	.cfi_offset w30, -8
	.cfi_offset w29, -16
	.cfi_remember_state
	str	x1, [sp, #8]
	str	x2, [sp, #16]
	str	w0, [sp, #28]
	stur	x1, [x29, #-24]
	stur	x2, [x29, #-16]
	mov	w8, #1
Ltmp473:
	.loc	14 924 15 prologue_end
	sturb	w8, [x29, #-25]
	ldr	w8, [sp, #28]
	subs	w8, w8, #272, lsl #12
	cset	w8, eq
	and	w8, w8, #0x1
	ands	w8, w8, #0x1
	cset	x8, eq
	.loc	14 924 9 is_stmt 0
	subs	x8, x8, #0
	cset	w8, ne
	tbnz	w8, #0, LBB50_2
	b	LBB50_1
LBB50_1:
	.loc	14 0 9
	mov	w8, #1114112
	.loc	14 926 21 is_stmt 1
	str	w8, [sp, #40]
	b	LBB50_3
LBB50_2:
	.loc	14 0 21 is_stmt 0
	ldr	x1, [sp, #16]
	ldr	x0, [sp, #8]
	.loc	14 925 18 is_stmt 1
	ldr	w8, [sp, #28]
	stur	w8, [x29, #-4]
Ltmp474:
	.loc	14 925 29 is_stmt 0
	sturb	wzr, [x29, #-25]
	stur	w8, [x29, #-32]
	ldur	w2, [x29, #-32]
	bl	__ZN102_$LT$core..str..iter..CharIndices$u20$as$u20$core..iter..traits..double_ended..DoubleEndedIterator$GT$9next_back28_$u7b$$u7b$closure$u7d$$u7d$17h13bbd47e0a9f97fcE
	.loc	14 925 24
	str	x0, [sp, #32]
	str	w1, [sp, #40]
Ltmp475:
	.loc	14 925 33
	b	LBB50_3
LBB50_3:
	.loc	14 928 5 is_stmt 1
	ldurb	w8, [x29, #-25]
	tbnz	w8, #0, LBB50_5
	b	LBB50_4
LBB50_4:
	.loc	14 928 6 is_stmt 0
	ldr	x0, [sp, #32]
	ldr	w1, [sp, #40]
	.cfi_def_cfa wsp, 96
	ldp	x29, x30, [sp, #80]
	add	sp, sp, #96
	.cfi_def_cfa_offset 0
	.cfi_restore w30
	.cfi_restore w29
	ret
LBB50_5:
	.cfi_restore_state
	.loc	14 928 5
	b	LBB50_4
Ltmp476:
Lfunc_end50:
	.cfi_endproc

	.p2align	2
__ZN4core6option15Option$LT$T$GT$3map17h7179fdb9bd9a214aE:
Lfunc_begin51:
	.loc	14 919 0 is_stmt 1
	.cfi_startproc
	sub	sp, sp, #48
	.cfi_def_cfa_offset 48
	stp	x29, x30, [sp, #32]
	add	x29, sp, #32
	.cfi_def_cfa w29, 16
	.cfi_offset w30, -8
	.cfi_offset w29, -16
	.cfi_remember_state
	str	w0, [sp, #8]
	str	w1, [sp, #12]
	mov	w8, #1
Ltmp477:
	.loc	14 924 15 prologue_end
	sturb	w8, [x29, #-6]
	ldr	w8, [sp, #8]
	.loc	14 924 9 is_stmt 0
	subs	x8, x8, #0
	cset	w8, ne
	tbnz	w8, #0, LBB51_2
	b	LBB51_1
LBB51_1:
	.loc	14 0 9
	mov	w8, #1114112
	.loc	14 926 21 is_stmt 1
	str	w8, [sp, #16]
	b	LBB51_3
LBB51_2:
	.loc	14 925 18
	ldr	w8, [sp, #12]
	stur	w8, [x29, #-4]
Ltmp478:
	.loc	14 925 29 is_stmt 0
	sturb	wzr, [x29, #-6]
	stur	w8, [x29, #-12]
	ldur	w0, [x29, #-12]
	bl	__ZN81_$LT$core..str..iter..Chars$u20$as$u20$core..iter..traits..iterator..Iterator$GT$4next28_$u7b$$u7b$closure$u7d$$u7d$17h6e71960f1c89b071E
	.loc	14 925 24
	str	w0, [sp, #16]
Ltmp479:
	.loc	14 925 33
	b	LBB51_3
LBB51_3:
	.loc	14 928 5 is_stmt 1
	ldurb	w8, [x29, #-6]
	tbnz	w8, #0, LBB51_5
	b	LBB51_4
LBB51_4:
	.loc	14 928 6 is_stmt 0
	ldr	w0, [sp, #16]
	.cfi_def_cfa wsp, 48
	ldp	x29, x30, [sp, #32]
	add	sp, sp, #48
	.cfi_def_cfa_offset 0
	.cfi_restore w30
	.cfi_restore w29
	ret
LBB51_5:
	.cfi_restore_state
	.loc	14 928 5
	b	LBB51_4
Ltmp480:
Lfunc_end51:
	.cfi_endproc

	.p2align	2
__ZN4core6result19Result$LT$T$C$E$GT$16unwrap_unchecked17h7bbb0dbcca13020fE:
Lfunc_begin52:
	.file	31 "/rustc/c5d82ed7a4ad94a538bb87e5016e7d5ce0bd434b/library/core/src" "result.rs"
	.loc	31 1531 0 is_stmt 1
	.cfi_startproc
	.cfi_personality 155, _rust_eh_personality
	.cfi_lsda 16, Lexception7
	sub	sp, sp, #80
	.cfi_def_cfa_offset 80
	stp	x29, x30, [sp, #64]
	add	x29, sp, #64
	.cfi_def_cfa w29, 16
	.cfi_offset w30, -8
	.cfi_offset w29, -16
	.cfi_remember_state
	str	x0, [sp, #16]
	str	x1, [sp, #24]
Ltmp484:
	.loc	31 1533 15 prologue_end
	ldr	x9, [sp, #24]
	mov	x8, #0
	subs	x9, x9, #0
	cset	w9, eq
	and	w9, w9, #0x1
	ands	w9, w9, #0x1
	csinc	x8, x8, xzr, eq
	.loc	31 1533 9 is_stmt 0
	subs	x8, x8, #0
	cset	w8, ne
	tbnz	w8, #0, LBB52_2
	b	LBB52_1
LBB52_1:
	.loc	31 1534 16 is_stmt 1
	ldr	x9, [sp, #16]
	str	x9, [sp]
	ldr	x8, [sp, #24]
	str	x8, [sp, #8]
	stur	x9, [x29, #-16]
	stur	x8, [x29, #-8]
	.loc	31 1538 5
	ldr	x9, [sp, #24]
	mov	x8, #0
	subs	x9, x9, #0
	cset	w9, eq
	and	w9, w9, #0x1
	ands	w9, w9, #0x1
	csinc	x8, x8, xzr, eq
	subs	x8, x8, #0
	cset	w8, eq
	tbnz	w8, #0, LBB52_10
	b	LBB52_11
LBB52_2:
Ltmp481:
	.loc	31 1536 32
	bl	__ZN4core4hint21unreachable_unchecked17ha191291e9bea9d11E
Ltmp482:
	b	LBB52_5
LBB52_3:
	.loc	31 1538 5
	ldr	x9, [sp, #24]
	mov	x8, #0
	subs	x9, x9, #0
	cset	w9, eq
	and	w9, w9, #0x1
	ands	w9, w9, #0x1
	csinc	x8, x8, xzr, eq
	subs	x8, x8, #0
	cset	w8, eq
	tbnz	w8, #0, LBB52_6
	b	LBB52_7
LBB52_4:
Ltmp483:
	.loc	31 0 5 is_stmt 0
	mov	x8, x1
	str	x0, [sp, #32]
	str	w8, [sp, #40]
	b	LBB52_3
LBB52_5:
	brk	#0x1
LBB52_6:
	mov	w8, #1
	.loc	31 1538 5
	tbnz	w8, #0, LBB52_9
	b	LBB52_8
LBB52_7:
	b	LBB52_8
LBB52_8:
	.loc	31 1531 5 is_stmt 1
	ldr	x0, [sp, #32]
	bl	__Unwind_Resume
LBB52_9:
	.loc	31 1538 5
	b	LBB52_8
LBB52_10:
	.loc	31 0 5 is_stmt 0
	ldr	x1, [sp, #8]
	ldr	x0, [sp]
	.cfi_def_cfa wsp, 80
	.loc	31 1538 6
	ldp	x29, x30, [sp, #64]
	add	sp, sp, #80
	.cfi_def_cfa_offset 0
	.cfi_restore w30
	.cfi_restore w29
	ret
LBB52_11:
	.cfi_restore_state
	.loc	31 1538 5
	b	LBB52_10
Ltmp485:
Lfunc_end52:
	.cfi_endproc
	.section	__TEXT,__gcc_except_tab
	.p2align	2
GCC_except_table52:
Lexception7:
	.byte	255
	.byte	255
	.byte	1
	.uleb128 Lcst_end7-Lcst_begin7
Lcst_begin7:
	.uleb128 Ltmp481-Lfunc_begin52
	.uleb128 Ltmp482-Ltmp481
	.uleb128 Ltmp483-Lfunc_begin52
	.byte	0
	.uleb128 Ltmp482-Lfunc_begin52
	.uleb128 Lfunc_end52-Ltmp482
	.byte	0
	.byte	0
Lcst_end7:
	.p2align	2

	.section	__TEXT,__text,regular,pure_instructions
	.p2align	2
__ZN4core6result19Result$LT$T$C$E$GT$6expect17h19a738dc3ab14f9fE:
Lfunc_begin53:
	.loc	31 1064 0 is_stmt 1
	.cfi_startproc
	.cfi_personality 155, _rust_eh_personality
	.cfi_lsda 16, Lexception8
	sub	sp, sp, #96
	.cfi_def_cfa_offset 96
	stp	x29, x30, [sp, #80]
	add	x29, sp, #80
	.cfi_def_cfa w29, 16
	.cfi_offset w30, -8
	.cfi_offset w29, -16
	.cfi_remember_state
	str	x0, [sp]
Ltmp492:
	str	x1, [sp, #8]
	str	x2, [sp, #16]
	str	x3, [sp, #24]
Ltmp493:
	str	x1, [sp, #40]
	str	x2, [sp, #48]
Ltmp494:
	.loc	31 1068 15 prologue_end
	ldr	x8, [x0]
	.loc	31 1068 9 is_stmt 0
	subs	x8, x8, #0
	cset	w8, ne
Ltmp495:
	tbnz	w8, #0, LBB53_2
	b	LBB53_1
Ltmp496:
LBB53_1:
	.loc	31 0 9
	ldr	x8, [sp]
	.loc	31 1069 16 is_stmt 1
	ldr	x0, [x8, #8]
	stur	x0, [x29, #-8]
	.cfi_def_cfa wsp, 96
	.loc	31 1072 6
	ldp	x29, x30, [sp, #80]
	add	sp, sp, #96
Ltmp497:
	.cfi_def_cfa_offset 0
	.cfi_restore w30
	.cfi_restore w29
	ret
LBB53_2:
	.cfi_restore_state
Ltmp498:
	.loc	31 0 6 is_stmt 0
	ldr	x4, [sp, #24]
	ldr	x1, [sp, #16]
	ldr	x0, [sp, #8]
	ldr	x8, [sp]
	.loc	31 1070 17 is_stmt 1
	ldr	x8, [x8, #8]
	add	x2, sp, #32
	str	x8, [sp, #32]
Ltmp486:
	adrp	x3, l___unnamed_2@PAGE
	add	x3, x3, l___unnamed_2@PAGEOFF
Ltmp499:
	.loc	31 1070 23 is_stmt 0
	bl	__ZN4core6result13unwrap_failed17ha94eb61a47ef2205E
Ltmp487:
	b	LBB53_5
Ltmp500:
LBB53_3:
Ltmp489:
	.loc	31 0 23
	add	x0, sp, #32
	.loc	31 1070 44
	bl	__ZN4core3ptr42drop_in_place$LT$std..io..error..Error$GT$17hdda6d1645bfe5b68E
Ltmp490:
	b	LBB53_7
Ltmp501:
LBB53_4:
Ltmp488:
	.loc	31 0 44
	mov	x8, x1
	stur	x0, [x29, #-24]
	stur	w8, [x29, #-16]
	b	LBB53_3
Ltmp502:
LBB53_5:
	brk	#0x1
Ltmp503:
LBB53_6:
Ltmp491:
	.loc	31 1064 5 is_stmt 1
	bl	__ZN4core9panicking15panic_no_unwind17hccbe1214147c6397E
Ltmp504:
LBB53_7:
	ldur	x0, [x29, #-24]
	bl	__Unwind_Resume
Ltmp505:
Lfunc_end53:
	.cfi_endproc
	.section	__TEXT,__gcc_except_tab
	.p2align	2
GCC_except_table53:
Lexception8:
	.byte	255
	.byte	255
	.byte	1
	.uleb128 Lcst_end8-Lcst_begin8
Lcst_begin8:
	.uleb128 Ltmp486-Lfunc_begin53
	.uleb128 Ltmp487-Ltmp486
	.uleb128 Ltmp488-Lfunc_begin53
	.byte	0
	.uleb128 Ltmp489-Lfunc_begin53
	.uleb128 Ltmp490-Ltmp489
	.uleb128 Ltmp491-Lfunc_begin53
	.byte	0
	.uleb128 Ltmp490-Lfunc_begin53
	.uleb128 Lfunc_end53-Ltmp490
	.byte	0
	.byte	0
Lcst_end8:
	.p2align	2

	.section	__TEXT,__text,regular,pure_instructions
	.p2align	2
__ZN4core6result19Result$LT$T$C$E$GT$6unwrap17hbea003f619e347b0E:
Lfunc_begin54:
	.loc	31 1107 0
	.cfi_startproc
	.cfi_personality 155, _rust_eh_personality
	.cfi_lsda 16, Lexception9
	sub	sp, sp, #80
	.cfi_def_cfa_offset 80
	stp	x29, x30, [sp, #64]
	add	x29, sp, #64
	.cfi_def_cfa w29, 16
	.cfi_offset w30, -8
	.cfi_offset w29, -16
	.cfi_remember_state
	str	x1, [sp, #8]
	str	x0, [sp, #24]
	ldr	x8, [sp, #24]
	str	x8, [sp, #16]
Ltmp509:
	.loc	31 1111 15 prologue_end
	ldrb	w8, [sp, #16]
	.loc	31 1111 9 is_stmt 0
	ands	x8, x8, #0x1
	cset	w8, ne
	tbnz	w8, #0, LBB54_2
	b	LBB54_1
LBB54_1:
	.loc	31 1112 16 is_stmt 1
	ldr	w0, [sp, #20]
	stur	w0, [x29, #-4]
	.cfi_def_cfa wsp, 80
	.loc	31 1115 6
	ldp	x29, x30, [sp, #64]
	add	sp, sp, #80
	.cfi_def_cfa_offset 0
	.cfi_restore w30
	.cfi_restore w29
	ret
LBB54_2:
	.cfi_restore_state
	.loc	31 0 6 is_stmt 0
	ldr	x4, [sp, #8]
	.loc	31 1113 17 is_stmt 1
	ldrb	w8, [sp, #17]
	sub	x2, x29, #25
	sturb	w8, [x29, #-25]
Ltmp506:
	adrp	x0, l___unnamed_16@PAGE
	add	x0, x0, l___unnamed_16@PAGEOFF
	mov	w8, #43
	mov	x1, x8
	adrp	x3, l___unnamed_3@PAGE
	add	x3, x3, l___unnamed_3@PAGEOFF
Ltmp510:
	.loc	31 1113 23 is_stmt 0
	bl	__ZN4core6result13unwrap_failed17ha94eb61a47ef2205E
Ltmp507:
	b	LBB54_5
Ltmp511:
LBB54_3:
	.loc	31 1107 5 is_stmt 1
	ldur	x0, [x29, #-24]
	bl	__Unwind_Resume
Ltmp512:
LBB54_4:
Ltmp508:
	.loc	31 0 5 is_stmt 0
	mov	x8, x1
	stur	x0, [x29, #-24]
	stur	w8, [x29, #-16]
	b	LBB54_3
LBB54_5:
	brk	#0x1
Lfunc_end54:
	.cfi_endproc
	.section	__TEXT,__gcc_except_tab
	.p2align	2
GCC_except_table54:
Lexception9:
	.byte	255
	.byte	255
	.byte	1
	.uleb128 Lcst_end9-Lcst_begin9
Lcst_begin9:
	.uleb128 Ltmp506-Lfunc_begin54
	.uleb128 Ltmp507-Ltmp506
	.uleb128 Ltmp508-Lfunc_begin54
	.byte	0
	.uleb128 Ltmp507-Lfunc_begin54
	.uleb128 Lfunc_end54-Ltmp507
	.byte	0
	.byte	0
Lcst_end9:
	.p2align	2

	.section	__TEXT,__text,regular,pure_instructions
	.p2align	2
__ZN4core7unicode12unicode_data11white_space6lookup17h111c4172687223e9E:
Lfunc_begin55:
	.file	32 "/rustc/c5d82ed7a4ad94a538bb87e5016e7d5ce0bd434b/library/core/src/unicode" "unicode_data.rs"
	.loc	32 570 0 is_stmt 1
	.cfi_startproc
	sub	sp, sp, #48
	.cfi_def_cfa_offset 48
	stp	x29, x30, [sp, #32]
	add	x29, sp, #32
	.cfi_def_cfa w29, 16
	.cfi_offset w30, -8
	.cfi_offset w29, -16
	.cfi_remember_state
	str	w0, [sp, #16]
	stur	w0, [x29, #-4]
Ltmp513:
	.loc	32 571 15 prologue_end
	lsr	w8, w0, #8
	stur	w8, [x29, #-12]
	.loc	32 571 9 is_stmt 0
	subs	w8, w8, #0
	cset	w8, eq
	tbnz	w8, #0, LBB55_5
	b	LBB55_1
LBB55_1:
	.loc	32 0 9
	ldur	w8, [x29, #-12]
	.loc	32 571 9
	subs	w8, w8, #22
	cset	w8, eq
	tbnz	w8, #0, LBB55_6
	b	LBB55_2
LBB55_2:
	.loc	32 0 9
	ldur	w8, [x29, #-12]
	.loc	32 571 9
	subs	w8, w8, #32
	cset	w8, eq
	tbnz	w8, #0, LBB55_7
	b	LBB55_3
LBB55_3:
	.loc	32 0 9
	ldur	w8, [x29, #-12]
	.loc	32 571 9
	subs	w8, w8, #48
	cset	w8, eq
	tbnz	w8, #0, LBB55_8
	b	LBB55_4
LBB55_4:
	.loc	32 576 18 is_stmt 1
	sturb	wzr, [x29, #-5]
	b	LBB55_9
LBB55_5:
	.loc	32 0 18 is_stmt 0
	ldr	w8, [sp, #16]
	.loc	32 572 33 is_stmt 1
	mov	w8, w8
	and	x8, x8, #0xff
	str	x8, [sp, #8]
	.loc	32 572 18 is_stmt 0
	subs	x8, x8, #256
	cset	w8, lo
	tbnz	w8, #0, LBB55_12
	b	LBB55_13
LBB55_6:
	.loc	32 0 18
	ldr	w8, [sp, #16]
	mov	w9, #5760
	.loc	32 573 19 is_stmt 1
	subs	w8, w8, w9
	cset	w8, eq
	and	w8, w8, #0x1
	sturb	w8, [x29, #-5]
	.loc	32 573 36 is_stmt 0
	b	LBB55_9
LBB55_7:
	.loc	32 0 36
	ldr	w8, [sp, #16]
	.loc	32 574 34 is_stmt 1
	mov	w8, w8
	and	x8, x8, #0xff
	str	x8, [sp]
	.loc	32 574 19 is_stmt 0
	subs	x8, x8, #256
	cset	w8, lo
	tbnz	w8, #0, LBB55_10
	b	LBB55_11
LBB55_8:
	.loc	32 0 19
	ldr	w8, [sp, #16]
	.loc	32 575 19 is_stmt 1
	subs	w8, w8, #3, lsl #12
	cset	w8, eq
	and	w8, w8, #0x1
	sturb	w8, [x29, #-5]
	.loc	32 575 36 is_stmt 0
	b	LBB55_9
LBB55_9:
	.loc	32 578 6 is_stmt 1
	ldurb	w8, [x29, #-5]
	and	w0, w8, #0x1
	.cfi_def_cfa wsp, 48
	ldp	x29, x30, [sp, #32]
	add	sp, sp, #48
	.cfi_def_cfa_offset 0
	.cfi_restore w30
	.cfi_restore w29
	ret
LBB55_10:
	.cfi_restore_state
	.loc	32 0 6 is_stmt 0
	ldr	x9, [sp]
	adrp	x8, __ZN4core7unicode12unicode_data11white_space14WHITESPACE_MAP17h528c35d3e8cad38dE@GOTPAGE
	ldr	x8, [x8, __ZN4core7unicode12unicode_data11white_space14WHITESPACE_MAP17h528c35d3e8cad38dE@GOTPAGEOFF]
	.loc	32 574 19 is_stmt 1
	add	x8, x8, x9
	ldrb	w8, [x8]
	and	w8, w8, #0x2
	ands	w8, w8, #0xff
	cset	w8, ne
	and	w8, w8, #0x1
	sturb	w8, [x29, #-5]
	.loc	32 574 60 is_stmt 0
	b	LBB55_9
LBB55_11:
	.loc	32 0 60
	ldr	x0, [sp]
	mov	w8, #256
	mov	x1, x8
	adrp	x2, l___unnamed_17@PAGE
	add	x2, x2, l___unnamed_17@PAGEOFF
	.loc	32 574 19
	bl	__ZN4core9panicking18panic_bounds_check17h4ca63ed4a73b0eb3E
LBB55_12:
	.loc	32 0 19
	ldr	x9, [sp, #8]
	adrp	x8, __ZN4core7unicode12unicode_data11white_space14WHITESPACE_MAP17h528c35d3e8cad38dE@GOTPAGE
	ldr	x8, [x8, __ZN4core7unicode12unicode_data11white_space14WHITESPACE_MAP17h528c35d3e8cad38dE@GOTPAGEOFF]
	.loc	32 572 18 is_stmt 1
	add	x8, x8, x9
	ldrb	w8, [x8]
	mov	w9, #1
	and	w8, w8, #0x1
	ands	w8, w8, #0xff
	cset	w8, ne
	and	w8, w8, w9
	sturb	w8, [x29, #-5]
	.loc	32 572 59 is_stmt 0
	b	LBB55_9
LBB55_13:
	.loc	32 0 59
	ldr	x0, [sp, #8]
	mov	w8, #256
	mov	x1, x8
	adrp	x2, l___unnamed_18@PAGE
	add	x2, x2, l___unnamed_18@PAGEOFF
	.loc	32 572 18
	bl	__ZN4core9panicking18panic_bounds_check17h4ca63ed4a73b0eb3E
Ltmp514:
Lfunc_end55:
	.cfi_endproc

	.p2align	2
__ZN50_$LT$T$u20$as$u20$core..convert..Into$LT$U$GT$$GT$4into17h58cafb1cc77c5165E:
Lfunc_begin56:
	.file	33 "/rustc/c5d82ed7a4ad94a538bb87e5016e7d5ce0bd434b/library/core/src/convert" "mod.rs"
	.loc	33 725 0 is_stmt 1
	.cfi_startproc
	sub	sp, sp, #32
	.cfi_def_cfa_offset 32
	stp	x29, x30, [sp, #16]
	add	x29, sp, #16
	.cfi_def_cfa w29, 16
	.cfi_offset w30, -8
	.cfi_offset w29, -16
	mov	x8, x0
	str	x8, [sp, #8]
Ltmp515:
	.loc	33 726 9 prologue_end
	bl	__ZN119_$LT$core..ptr..non_null..NonNull$LT$T$GT$$u20$as$u20$core..convert..From$LT$core..ptr..unique..Unique$LT$T$GT$$GT$$GT$4from17h05778fac0a218259E
	.cfi_def_cfa wsp, 32
	.loc	33 727 6
	ldp	x29, x30, [sp, #16]
	add	sp, sp, #32
	.cfi_def_cfa_offset 0
	.cfi_restore w30
	.cfi_restore w29
	ret
Ltmp516:
Lfunc_end56:
	.cfi_endproc

	.p2align	2
__ZN53_$LT$F$u20$as$u20$core..str..pattern..MultiCharEq$GT$7matches17h52a7ada6a6ec3f2dE:
Lfunc_begin57:
	.loc	8 607 0
	.cfi_startproc
	sub	sp, sp, #48
	.cfi_def_cfa_offset 48
	stp	x29, x30, [sp, #32]
	add	x29, sp, #32
	.cfi_def_cfa w29, 16
	.cfi_offset w30, -8
	.cfi_offset w29, -16
	mov	x8, x0
	str	x8, [sp, #16]
	stur	w1, [x29, #-4]
Ltmp517:
	.loc	8 608 9 prologue_end
	str	w1, [sp, #12]
	ldr	w1, [sp, #12]
	bl	__ZN4core3str21_$LT$impl$u20$str$GT$4trim28_$u7b$$u7b$closure$u7d$$u7d$17hb36e6d0031c2863fE
	.loc	8 609 6
	and	w0, w0, #0x1
	.cfi_def_cfa wsp, 48
	ldp	x29, x30, [sp, #32]
	add	sp, sp, #48
	.cfi_def_cfa_offset 0
	.cfi_restore w30
	.cfi_restore w29
	ret
Ltmp518:
Lfunc_end57:
	.cfi_endproc

	.p2align	2
__ZN54_$LT$$LP$$RP$$u20$as$u20$std..process..Termination$GT$6report17h80840be4f0116ebaE:
Lfunc_begin58:
	.loc	16 2178 0
	.cfi_startproc
	sub	sp, sp, #16
	.cfi_def_cfa_offset 16
	mov	w0, #0
Ltmp520:
	.loc	16 2180 6 prologue_end
	add	sp, sp, #16
	.cfi_def_cfa_offset 0
	ret
Ltmp521:
Lfunc_end58:
	.cfi_endproc

	.p2align	2
__ZN5alloc5alloc8box_free17h8d3466e882c6e559E:
Lfunc_begin59:
	.file	34 "/rustc/c5d82ed7a4ad94a538bb87e5016e7d5ce0bd434b/library/alloc/src" "alloc.rs"
	.loc	34 340 0
	.cfi_startproc
	.cfi_personality 155, _rust_eh_personality
	.cfi_lsda 16, Lexception10
	sub	sp, sp, #288
	.cfi_def_cfa_offset 288
	stp	x28, x27, [sp, #256]
	stp	x29, x30, [sp, #272]
	add	x29, sp, #272
	.cfi_def_cfa w29, 16
	.cfi_offset w30, -8
	.cfi_offset w29, -16
	.cfi_offset w27, -24
	.cfi_offset w28, -32
	add	x8, sp, #16
	str	x0, [sp, #16]
Ltmp525:
	.loc	34 345 32 prologue_end
	mov	x9, x8
	str	x9, [sp, #72]
Ltmp526:
	.loc	10 117 18
	mov	x9, x8
	str	x9, [sp, #80]
Ltmp527:
	.loc	5 385 20
	ldr	x9, [sp, #16]
	str	x9, [sp, #88]
	mov	w9, #24
Ltmp528:
	.loc	34 345 20
	str	x9, [sp, #96]
	ldr	x9, [sp, #96]
	str	x9, [sp]
	str	x9, [sp, #104]
Ltmp529:
	.loc	34 346 38
	mov	x10, x8
	str	x10, [sp, #112]
Ltmp530:
	.loc	10 117 18
	str	x8, [sp, #120]
Ltmp531:
	.loc	5 385 20
	ldr	x8, [sp, #16]
	str	x8, [sp, #128]
	mov	w8, #8
Ltmp532:
	.loc	34 346 21
	str	x8, [sp, #136]
	ldr	x8, [sp, #136]
	stur	x8, [x29, #-128]
Ltmp533:
	.loc	34 347 56
	stur	x9, [x29, #-120]
	.loc	34 347 62 is_stmt 0
	stur	x8, [x29, #-112]
Ltmp534:
	.loc	27 120 65 is_stmt 1
	stur	x8, [x29, #-104]
Ltmp535:
	.loc	28 88 18
	stur	x8, [x29, #-96]
	ldur	x8, [x29, #-96]
	str	x8, [sp, #8]
	b	LBB59_1
Ltmp536:
LBB59_1:
	.loc	28 0 18 is_stmt 0
	ldr	x8, [sp, #8]
	ldr	x9, [sp]
	.loc	27 120 18 is_stmt 1
	str	x9, [sp, #32]
	str	x8, [sp, #40]
Ltmp537:
	.loc	34 348 37
	ldr	x8, [sp, #16]
	stur	x8, [x29, #-88]
Ltmp538:
	.loc	10 137 22
	stur	x8, [x29, #-80]
Ltmp539:
	.loc	5 459 41
	stur	x8, [x29, #-72]
	stur	x8, [x29, #-64]
Ltmp540:
	.loc	5 201 13
	str	x8, [sp, #64]
Ltmp541:
	.loc	10 191 18
	ldr	x8, [sp, #64]
	.loc	10 191 9 is_stmt 0
	str	x8, [sp, #56]
Ltmp542:
	.loc	5 777 41 is_stmt 1
	ldr	x8, [sp, #56]
	stur	x8, [x29, #-56]
Ltmp543:
	.loc	10 104 9
	stur	x8, [x29, #-48]
Ltmp544:
	.loc	5 335 9
	stur	x8, [x29, #-40]
Ltmp545:
	.loc	5 201 13
	str	x8, [sp, #48]
Ltmp546:
	.loc	34 348 50
	ldr	x2, [sp, #32]
	ldr	x3, [sp, #40]
	.loc	34 348 9 is_stmt 0
	ldr	x1, [sp, #48]
Ltmp522:
	add	x0, sp, #31
	bl	__ZN63_$LT$alloc..alloc..Global$u20$as$u20$core..alloc..Allocator$GT$10deallocate17hd458e6558e948129E
Ltmp523:
	b	LBB59_4
Ltmp547:
LBB59_2:
	.loc	34 340 1 is_stmt 1
	ldur	x0, [x29, #-32]
	bl	__Unwind_Resume
LBB59_3:
Ltmp524:
	.loc	34 0 1 is_stmt 0
	mov	x8, x1
	stur	x0, [x29, #-32]
	stur	w8, [x29, #-24]
	b	LBB59_2
LBB59_4:
	.cfi_def_cfa wsp, 288
	.loc	34 350 2 is_stmt 1
	ldp	x29, x30, [sp, #272]
	ldp	x28, x27, [sp, #256]
	add	sp, sp, #288
	.cfi_def_cfa_offset 0
	.cfi_restore w30
	.cfi_restore w29
	.cfi_restore w27
	.cfi_restore w28
	ret
Ltmp548:
Lfunc_end59:
	.cfi_endproc
	.section	__TEXT,__gcc_except_tab
	.p2align	2
GCC_except_table59:
Lexception10:
	.byte	255
	.byte	255
	.byte	1
	.uleb128 Lcst_end10-Lcst_begin10
Lcst_begin10:
	.uleb128 Ltmp522-Lfunc_begin59
	.uleb128 Ltmp523-Ltmp522
	.uleb128 Ltmp524-Lfunc_begin59
	.byte	0
	.uleb128 Ltmp523-Lfunc_begin59
	.uleb128 Lfunc_end59-Ltmp523
	.byte	0
	.byte	0
Lcst_end10:
	.p2align	2

	.section	__TEXT,__text,regular,pure_instructions
	.p2align	2
__ZN5alloc5alloc8box_free17hd2de46f2a463d048E:
Lfunc_begin60:
	.loc	34 340 0
	.cfi_startproc
	.cfi_personality 155, _rust_eh_personality
	.cfi_lsda 16, Lexception11
	sub	sp, sp, #336
	.cfi_def_cfa_offset 336
	stp	x28, x27, [sp, #304]
	stp	x29, x30, [sp, #320]
	add	x29, sp, #320
	.cfi_def_cfa w29, 16
	.cfi_offset w30, -8
	.cfi_offset w29, -16
	.cfi_offset w27, -24
	.cfi_offset w28, -32
	add	x8, sp, #16
	str	x0, [sp, #16]
	str	x1, [sp, #24]
Ltmp552:
	.loc	34 345 32 prologue_end
	mov	x9, x8
	str	x9, [sp, #80]
Ltmp553:
	.loc	10 117 18
	mov	x9, x8
	str	x9, [sp, #88]
Ltmp554:
	.loc	5 385 20
	ldr	x10, [sp, #16]
	ldr	x9, [sp, #24]
	str	x10, [sp, #96]
	mov	x10, x9
	str	x10, [sp, #104]
Ltmp555:
	.loc	34 345 20
	ldr	x9, [x9, #8]
	str	x9, [sp, #112]
	ldr	x9, [sp, #112]
	str	x9, [sp]
	str	x9, [sp, #120]
Ltmp556:
	.loc	34 346 38
	mov	x10, x8
	str	x10, [sp, #128]
Ltmp557:
	.loc	10 117 18
	str	x8, [sp, #136]
Ltmp558:
	.loc	5 385 20
	ldr	x10, [sp, #16]
	ldr	x8, [sp, #24]
	str	x10, [sp, #144]
	mov	x10, x8
	str	x10, [sp, #152]
Ltmp559:
	.loc	34 346 21
	ldr	x8, [x8, #16]
	str	x8, [sp, #160]
	ldr	x8, [sp, #160]
	stur	x8, [x29, #-152]
Ltmp560:
	.loc	34 347 56
	stur	x9, [x29, #-144]
	.loc	34 347 62 is_stmt 0
	stur	x8, [x29, #-136]
Ltmp561:
	.loc	27 120 65 is_stmt 1
	stur	x8, [x29, #-128]
Ltmp562:
	.loc	28 88 18
	stur	x8, [x29, #-120]
	ldur	x8, [x29, #-120]
	str	x8, [sp, #8]
	b	LBB60_1
Ltmp563:
LBB60_1:
	.loc	28 0 18 is_stmt 0
	ldr	x8, [sp, #8]
	ldr	x9, [sp]
	.loc	27 120 18 is_stmt 1
	str	x9, [sp, #40]
	str	x8, [sp, #48]
Ltmp564:
	.loc	34 348 37
	ldr	x8, [sp, #16]
	ldr	x9, [sp, #24]
	stur	x8, [x29, #-112]
	stur	x9, [x29, #-104]
Ltmp565:
	.loc	10 137 22
	stur	x8, [x29, #-96]
	stur	x9, [x29, #-88]
Ltmp566:
	.loc	5 459 41
	stur	x8, [x29, #-80]
	stur	x9, [x29, #-72]
	stur	x8, [x29, #-64]
Ltmp567:
	.loc	5 201 13
	str	x8, [sp, #72]
Ltmp568:
	.loc	10 191 18
	ldr	x8, [sp, #72]
	.loc	10 191 9 is_stmt 0
	str	x8, [sp, #64]
Ltmp569:
	.loc	5 777 41 is_stmt 1
	ldr	x8, [sp, #64]
	stur	x8, [x29, #-56]
Ltmp570:
	.loc	10 104 9
	stur	x8, [x29, #-48]
Ltmp571:
	.loc	5 335 9
	stur	x8, [x29, #-40]
Ltmp572:
	.loc	5 201 13
	str	x8, [sp, #56]
Ltmp573:
	.loc	34 348 50
	ldr	x2, [sp, #40]
	ldr	x3, [sp, #48]
	.loc	34 348 9 is_stmt 0
	ldr	x1, [sp, #56]
Ltmp549:
	add	x0, sp, #39
	bl	__ZN63_$LT$alloc..alloc..Global$u20$as$u20$core..alloc..Allocator$GT$10deallocate17hd458e6558e948129E
Ltmp550:
	b	LBB60_4
Ltmp574:
LBB60_2:
	.loc	34 340 1 is_stmt 1
	ldur	x0, [x29, #-32]
	bl	__Unwind_Resume
LBB60_3:
Ltmp551:
	.loc	34 0 1 is_stmt 0
	mov	x8, x1
	stur	x0, [x29, #-32]
	stur	w8, [x29, #-24]
	b	LBB60_2
LBB60_4:
	.cfi_def_cfa wsp, 336
	.loc	34 350 2 is_stmt 1
	ldp	x29, x30, [sp, #320]
	ldp	x28, x27, [sp, #304]
	add	sp, sp, #336
	.cfi_def_cfa_offset 0
	.cfi_restore w30
	.cfi_restore w29
	.cfi_restore w27
	.cfi_restore w28
	ret
Ltmp575:
Lfunc_end60:
	.cfi_endproc
	.section	__TEXT,__gcc_except_tab
	.p2align	2
GCC_except_table60:
Lexception11:
	.byte	255
	.byte	255
	.byte	1
	.uleb128 Lcst_end11-Lcst_begin11
Lcst_begin11:
	.uleb128 Ltmp549-Lfunc_begin60
	.uleb128 Ltmp550-Ltmp549
	.uleb128 Ltmp551-Lfunc_begin60
	.byte	0
	.uleb128 Ltmp550-Lfunc_begin60
	.uleb128 Lfunc_end60-Ltmp550
	.byte	0
	.byte	0
Lcst_end11:
	.p2align	2

	.section	__TEXT,__text,regular,pure_instructions
	.p2align	2
__ZN5alloc6string6String3len17h01b29cc5352c50f4E:
Lfunc_begin61:
	.file	35 "/rustc/c5d82ed7a4ad94a538bb87e5016e7d5ce0bd434b/library/alloc/src" "string.rs"
	.loc	35 1636 0
	.cfi_startproc
	sub	sp, sp, #16
	.cfi_def_cfa_offset 16
	mov	x8, x0
	str	x8, [sp]
Ltmp577:
	.loc	35 1637 9 prologue_end
	mov	x8, x0
	str	x8, [sp, #8]
Ltmp578:
	.file	36 "/rustc/c5d82ed7a4ad94a538bb87e5016e7d5ce0bd434b/library/alloc/src/vec" "mod.rs"
	.loc	36 2056 9
	ldr	x0, [x0, #16]
Ltmp579:
	.loc	35 1638 6
	add	sp, sp, #16
	.cfi_def_cfa_offset 0
	ret
Ltmp580:
Lfunc_end61:
	.cfi_endproc

	.p2align	2
__ZN5alloc6string6String3new17h512c7a374ac8640bE:
Lfunc_begin62:
	.loc	35 455 0
	.cfi_startproc
	sub	sp, sp, #32
	.cfi_def_cfa_offset 32
	mov	x9, x8
	adrp	x10, l___unnamed_19@PAGE
	adrp	x8, l___unnamed_19@PAGE
	add	x8, x8, l___unnamed_19@PAGEOFF
Ltmp582:
	.loc	36 425 20 prologue_end
	ldr	x10, [x10, l___unnamed_19@PAGEOFF]
	ldr	x8, [x8, #8]
	.loc	36 425 9 is_stmt 0
	str	x10, [sp, #8]
	str	x8, [sp, #16]
	str	xzr, [sp, #24]
Ltmp583:
	.loc	35 456 9 is_stmt 1
	ldur	q0, [sp, #8]
	str	q0, [x9]
	ldr	x8, [sp, #24]
	str	x8, [x9, #16]
	.loc	35 457 6
	add	sp, sp, #32
	.cfi_def_cfa_offset 0
	ret
Ltmp584:
Lfunc_end62:
	.cfi_endproc

	.p2align	2
__ZN5alloc7raw_vec19RawVec$LT$T$C$A$GT$14current_memory17h28b8966b772ea4ffE:
Lfunc_begin63:
	.file	37 "/rustc/c5d82ed7a4ad94a538bb87e5016e7d5ce0bd434b/library/alloc/src" "raw_vec.rs"
	.loc	37 240 0
	.cfi_startproc
	sub	sp, sp, #176
	.cfi_def_cfa_offset 176
	stp	x29, x30, [sp, #160]
	add	x29, sp, #160
	.cfi_def_cfa w29, 16
	.cfi_offset w30, -8
	.cfi_offset w29, -16
	str	x8, [sp, #16]
	str	x0, [sp, #24]
	str	x0, [sp, #80]
	mov	w8, #0
Ltmp585:
	.loc	37 241 12 prologue_end
	tbnz	w8, #0, LBB63_2
	b	LBB63_1
LBB63_1:
	.loc	37 0 12 is_stmt 0
	ldr	x8, [sp, #24]
	.loc	37 241 25
	ldr	x8, [x8, #8]
	subs	x8, x8, #0
	cset	w8, eq
	.loc	37 241 12
	and	w8, w8, #0x1
	strb	w8, [sp, #39]
	b	LBB63_3
LBB63_2:
	.loc	37 0 12
	mov	w8, #1
	.loc	37 241 12
	strb	w8, [sp, #39]
	b	LBB63_3
LBB63_3:
	ldrb	w8, [sp, #39]
	tbnz	w8, #0, LBB63_5
	b	LBB63_4
LBB63_4:
	.loc	37 0 12
	ldr	x8, [sp, #24]
	.loc	37 247 49 is_stmt 1
	ldr	x2, [x8, #8]
	stur	x2, [x29, #-72]
	mov	w8, #1
	mov	x0, x8
Ltmp586:
	.loc	3 459 5
	stur	x0, [x29, #-64]
Ltmp587:
	.loc	28 88 18
	stur	x0, [x29, #-56]
	ldur	x1, [x29, #-56]
Ltmp588:
	.loc	27 428 16
	bl	__ZN4core5alloc6layout6Layout5array5inner17h17186c98d87873fbE
	adrp	x2, l___unnamed_20@PAGE
	add	x2, x2, l___unnamed_20@PAGEOFF
Ltmp589:
	.loc	37 247 30
	bl	__ZN4core6result19Result$LT$T$C$E$GT$16unwrap_unchecked17h7bbb0dbcca13020fE
	ldr	x8, [sp, #24]
	str	x0, [sp, #8]
	str	x1, [sp]
	stur	x0, [x29, #-48]
	stur	x1, [x29, #-40]
Ltmp590:
	.loc	37 248 23
	ldr	x8, [x8]
	stur	x8, [x29, #-32]
Ltmp591:
	.loc	10 137 22
	stur	x8, [x29, #-24]
Ltmp592:
	.loc	5 459 41
	stur	x8, [x29, #-16]
	stur	x8, [x29, #-8]
Ltmp593:
	.loc	5 201 13
	str	x8, [sp, #72]
Ltmp594:
	.loc	10 191 18
	ldr	x8, [sp, #72]
	.loc	10 191 9 is_stmt 0
	str	x8, [sp, #64]
Ltmp595:
	.loc	37 248 23 is_stmt 1
	ldr	x0, [sp, #64]
	bl	__ZN50_$LT$T$u20$as$u20$core..convert..Into$LT$U$GT$$GT$4into17h58cafb1cc77c5165E
	ldr	x1, [sp]
	ldr	x9, [sp, #16]
	mov	x8, x0
	ldr	x0, [sp, #8]
	.loc	37 248 22 is_stmt 0
	str	x8, [sp, #40]
	str	x0, [sp, #48]
	str	x1, [sp, #56]
	.loc	37 248 17
	ldur	q0, [sp, #40]
	str	q0, [x9]
	ldr	x8, [sp, #56]
	str	x8, [x9, #16]
Ltmp596:
	.loc	37 241 9 is_stmt 1
	b	LBB63_6
LBB63_5:
	.loc	37 0 9 is_stmt 0
	ldr	x8, [sp, #16]
	.loc	37 242 13 is_stmt 1
	str	xzr, [x8, #16]
	.loc	37 241 9
	b	LBB63_6
LBB63_6:
	.cfi_def_cfa wsp, 176
	.loc	37 251 6
	ldp	x29, x30, [sp, #160]
	add	sp, sp, #176
	.cfi_def_cfa_offset 0
	.cfi_restore w30
	.cfi_restore w29
	ret
Ltmp597:
Lfunc_end63:
	.cfi_endproc

	.p2align	2
__ZN63_$LT$alloc..alloc..Global$u20$as$u20$core..alloc..Allocator$GT$10deallocate17hd458e6558e948129E:
Lfunc_begin64:
	.loc	34 246 0
	.cfi_startproc
	sub	sp, sp, #128
	.cfi_def_cfa_offset 128
	stp	x29, x30, [sp, #112]
	add	x29, sp, #112
	.cfi_def_cfa w29, 16
	.cfi_offset w30, -8
	.cfi_offset w29, -16
	str	x1, [sp]
	add	x8, sp, #8
	str	x2, [sp, #8]
	str	x3, [sp, #16]
	str	x0, [sp, #48]
	str	x1, [sp, #56]
Ltmp598:
	.loc	34 247 12 prologue_end
	stur	x8, [x29, #-48]
Ltmp599:
	.loc	27 129 9
	ldr	x8, [sp, #8]
Ltmp600:
	.loc	34 247 12
	subs	x8, x8, #0
	cset	w8, ne
	tbnz	w8, #0, LBB64_2
	b	LBB64_1
LBB64_1:
	.loc	34 247 9 is_stmt 0
	b	LBB64_3
LBB64_2:
	.loc	34 0 9
	ldr	x0, [sp]
	.loc	34 250 30 is_stmt 1
	mov	x8, x0
	stur	x8, [x29, #-40]
Ltmp601:
	.loc	5 335 9
	mov	x8, x0
	stur	x8, [x29, #-32]
Ltmp602:
	.loc	34 250 44
	ldr	x10, [sp, #8]
	ldr	x9, [sp, #16]
	add	x8, sp, #24
	str	x10, [sp, #24]
	str	x9, [sp, #32]
Ltmp603:
	.loc	34 113 34
	mov	x9, x8
	stur	x9, [x29, #-24]
Ltmp604:
	.loc	27 129 9
	ldr	x1, [sp, #24]
Ltmp605:
	.loc	34 113 49
	stur	x8, [x29, #-16]
Ltmp606:
	.loc	27 140 9
	ldr	x8, [sp, #32]
	stur	x8, [x29, #-8]
Ltmp607:
	.loc	28 96 9
	str	x8, [sp, #40]
	ldr	x2, [sp, #40]
Ltmp608:
	.loc	34 113 14
	bl	___rust_dealloc
Ltmp609:
	.loc	34 247 9
	b	LBB64_3
LBB64_3:
	.cfi_def_cfa wsp, 128
	.loc	34 252 6
	ldp	x29, x30, [sp, #112]
	add	sp, sp, #128
	.cfi_def_cfa_offset 0
	.cfi_restore w30
	.cfi_restore w29
	ret
Ltmp610:
Lfunc_end64:
	.cfi_endproc

	.p2align	2
__ZN65_$LT$alloc..string..String$u20$as$u20$core..ops..deref..Deref$GT$5deref17h3aa06b37222c244bE:
Lfunc_begin65:
	.loc	35 2459 0
	.cfi_startproc
	sub	sp, sp, #64
	.cfi_def_cfa_offset 64
	stp	x29, x30, [sp, #48]
	add	x29, sp, #48
	.cfi_def_cfa w29, 16
	.cfi_offset w30, -8
	.cfi_offset w29, -16
	mov	x8, x0
	str	x8, [sp, #8]
Ltmp611:
	.loc	35 2460 43 prologue_end
	bl	__ZN72_$LT$alloc..vec..Vec$LT$T$C$A$GT$$u20$as$u20$core..ops..deref..Deref$GT$5deref17h8b244047e349e668E
	mov	x8, x0
	str	x8, [sp, #16]
	str	x1, [sp, #24]
Ltmp612:
	.file	38 "/rustc/c5d82ed7a4ad94a538bb87e5016e7d5ce0bd434b/library/core/src/str" "converts.rs"
	.loc	38 173 14
	stur	x0, [x29, #-16]
	stur	x1, [x29, #-8]
	ldur	x0, [x29, #-16]
	ldur	x1, [x29, #-8]
Ltmp613:
	.cfi_def_cfa wsp, 64
	.loc	35 2461 6
	ldp	x29, x30, [sp, #48]
	add	sp, sp, #64
	.cfi_def_cfa_offset 0
	.cfi_restore w30
	.cfi_restore w29
	ret
Ltmp614:
Lfunc_end65:
	.cfi_endproc

	.p2align	2
__ZN70_$LT$alloc..vec..Vec$LT$T$C$A$GT$$u20$as$u20$core..ops..drop..Drop$GT$4drop17hcdc7244169452bc1E:
Lfunc_begin66:
	.loc	36 3024 0
	.cfi_startproc
	sub	sp, sp, #144
	.cfi_def_cfa_offset 144
	stp	x29, x30, [sp, #128]
	add	x29, sp, #128
	.cfi_def_cfa w29, 16
	.cfi_offset w30, -8
	.cfi_offset w29, -16
	str	x0, [sp, #8]
	mov	x8, x0
	str	x8, [sp, #48]
Ltmp615:
	.loc	36 3029 62 prologue_end
	mov	x8, x0
	str	x8, [sp, #56]
Ltmp616:
	.loc	36 1274 19
	mov	x8, x0
	str	x8, [sp, #64]
Ltmp617:
	.loc	37 224 9
	ldr	x0, [x0]
	str	x0, [sp]
	stur	x0, [x29, #-56]
Ltmp618:
	.loc	10 104 9
	stur	x0, [x29, #-48]
Ltmp619:
	.loc	5 335 9
	stur	x0, [x29, #-40]
Ltmp620:
	.loc	36 1276 21
	bl	__ZN4core3ptr7mut_ptr31_$LT$impl$u20$$BP$mut$u20$T$GT$7is_null17he1e87271ae509351E
	ldr	x9, [sp]
	ldr	x0, [sp, #8]
Ltmp621:
	.loc	36 3029 81
	ldr	x8, [x0, #16]
	stur	x8, [x29, #-32]
Ltmp622:
	.loc	20 742 24
	stur	x9, [x29, #-24]
Ltmp623:
	.loc	6 49 9
	stur	x9, [x29, #-16]
Ltmp624:
	.loc	20 742 37
	stur	x8, [x29, #-8]
Ltmp625:
	.loc	9 135 36
	str	x9, [sp, #32]
	str	x8, [sp, #40]
	.loc	9 135 14 is_stmt 0
	ldr	x9, [sp, #32]
	ldr	x8, [sp, #40]
	str	x9, [sp, #16]
	str	x8, [sp, #24]
Ltmp626:
	.cfi_def_cfa wsp, 144
	.loc	36 3032 6 is_stmt 1
	ldp	x29, x30, [sp, #128]
	add	sp, sp, #144
	.cfi_def_cfa_offset 0
	.cfi_restore w30
	.cfi_restore w29
	ret
Ltmp627:
Lfunc_end66:
	.cfi_endproc

	.p2align	2
__ZN72_$LT$alloc..vec..Vec$LT$T$C$A$GT$$u20$as$u20$core..ops..deref..Deref$GT$5deref17h8b244047e349e668E:
Lfunc_begin67:
	.loc	36 2640 0
	.cfi_startproc
	sub	sp, sp, #176
	.cfi_def_cfa_offset 176
	stp	x29, x30, [sp, #160]
	add	x29, sp, #160
	.cfi_def_cfa w29, 16
	.cfi_offset w30, -8
	.cfi_offset w29, -16
	str	x0, [sp, #16]
	mov	x8, x0
	str	x8, [sp, #56]
Ltmp628:
	.loc	36 2641 40 prologue_end
	mov	x8, x0
	str	x8, [sp, #64]
Ltmp629:
	.loc	36 1237 19
	mov	x8, x0
	str	x8, [sp, #72]
Ltmp630:
	.loc	37 224 9
	ldr	x0, [x0]
	str	x0, [sp, #8]
	str	x0, [sp, #80]
Ltmp631:
	.loc	10 104 9
	stur	x0, [x29, #-72]
Ltmp632:
	.loc	5 335 9
	stur	x0, [x29, #-64]
Ltmp633:
	.loc	36 1239 21
	bl	__ZN4core3ptr7mut_ptr31_$LT$impl$u20$$BP$mut$u20$T$GT$7is_null17he1e87271ae509351E
	ldr	x9, [sp, #8]
	ldr	x0, [sp, #16]
	.loc	36 1241 9
	stur	x9, [x29, #-56]
Ltmp634:
	.loc	36 2641 55
	ldr	x8, [x0, #16]
	stur	x8, [x29, #-48]
Ltmp635:
	.file	39 "/rustc/c5d82ed7a4ad94a538bb87e5016e7d5ce0bd434b/library/core/src/slice" "raw.rs"
	.loc	39 100 37
	stur	x9, [x29, #-40]
	.loc	39 100 43 is_stmt 0
	stur	x8, [x29, #-32]
Ltmp636:
	.loc	20 710 20 is_stmt 1
	stur	x9, [x29, #-24]
Ltmp637:
	.loc	4 50 9
	stur	x9, [x29, #-16]
Ltmp638:
	.loc	20 710 33
	stur	x8, [x29, #-8]
Ltmp639:
	.loc	9 118 36
	str	x9, [sp, #40]
	str	x8, [sp, #48]
	.loc	9 118 14 is_stmt 0
	ldr	x9, [sp, #40]
	ldr	x8, [sp, #48]
	str	x9, [sp, #24]
	str	x8, [sp, #32]
	ldr	x0, [sp, #24]
	ldr	x1, [sp, #32]
Ltmp640:
	.cfi_def_cfa wsp, 176
	.loc	36 2642 6 is_stmt 1
	ldp	x29, x30, [sp, #160]
	add	sp, sp, #176
	.cfi_def_cfa_offset 0
	.cfi_restore w30
	.cfi_restore w29
	ret
Ltmp641:
Lfunc_end67:
	.cfi_endproc

	.p2align	2
__ZN73_$LT$$u5b$A$u5d$$u20$as$u20$core..slice..cmp..SlicePartialEq$LT$B$GT$$GT$5equal17h0e513296229e3a89E:
Lfunc_begin68:
	.loc	29 82 0
	.cfi_startproc
	sub	sp, sp, #160
	.cfi_def_cfa_offset 160
	stp	x29, x30, [sp, #144]
	add	x29, sp, #144
	.cfi_def_cfa w29, 16
	.cfi_offset w30, -8
	.cfi_offset w29, -16
	str	x0, [sp, #8]
	str	x1, [sp, #16]
	str	x2, [sp, #24]
	str	x3, [sp, #32]
	str	x0, [sp, #48]
	str	x1, [sp, #56]
	str	x2, [sp, #64]
	str	x3, [sp, #72]
Ltmp642:
	.loc	29 83 12 prologue_end
	subs	x8, x1, x3
	cset	w8, ne
	tbnz	w8, #0, LBB68_2
	b	LBB68_1
LBB68_1:
	.loc	29 0 12 is_stmt 0
	ldr	x1, [sp, #24]
	ldr	x0, [sp, #8]
	ldr	x8, [sp, #32]
	ldr	x9, [sp, #16]
	.loc	29 90 41 is_stmt 1
	mov	x10, x0
	stur	x10, [x29, #-64]
	stur	x9, [x29, #-56]
Ltmp643:
	.loc	3 338 14
	lsr	x10, x9, #0
	stur	x10, [x29, #-48]
	ldur	x2, [x29, #-48]
	stur	x2, [x29, #-40]
Ltmp644:
	.loc	29 91 20
	mov	x10, x0
	stur	x10, [x29, #-32]
	stur	x9, [x29, #-24]
	.loc	29 91 48 is_stmt 0
	mov	x9, x1
	stur	x9, [x29, #-16]
	stur	x8, [x29, #-8]
	.loc	29 91 13
	bl	_memcmp
	subs	w8, w0, #0
	cset	w8, eq
	and	w8, w8, #0x1
	strb	w8, [sp, #47]
Ltmp645:
	.loc	29 93 6 is_stmt 1
	b	LBB68_3
LBB68_2:
	.loc	29 84 20
	strb	wzr, [sp, #47]
	.loc	29 93 6
	b	LBB68_3
LBB68_3:
	ldrb	w8, [sp, #47]
	and	w0, w8, #0x1
	.cfi_def_cfa wsp, 160
	ldp	x29, x30, [sp, #144]
	add	sp, sp, #160
	.cfi_def_cfa_offset 0
	.cfi_restore w30
	.cfi_restore w29
	ret
Ltmp646:
Lfunc_end68:
	.cfi_endproc

	.p2align	2
__ZN77_$LT$alloc..raw_vec..RawVec$LT$T$C$A$GT$$u20$as$u20$core..ops..drop..Drop$GT$4drop17h84e8a9322695eb2bE:
Lfunc_begin69:
	.loc	37 477 0
	.cfi_startproc
	sub	sp, sp, #80
	.cfi_def_cfa_offset 80
	stp	x29, x30, [sp, #64]
	add	x29, sp, #64
	.cfi_def_cfa w29, 16
	.cfi_offset w30, -8
	.cfi_offset w29, -16
	str	x0, [sp]
	mov	x8, x0
	str	x8, [sp, #32]
	add	x8, sp, #8
Ltmp647:
	.loc	37 478 38 prologue_end
	bl	__ZN5alloc7raw_vec19RawVec$LT$T$C$A$GT$14current_memory17h28b8966b772ea4ffE
	.loc	37 478 16 is_stmt 0
	ldr	x8, [sp, #24]
	subs	x8, x8, #0
	cset	w8, eq
	and	w8, w8, #0x1
	ands	w8, w8, #0x1
	cset	x8, eq
	subs	x8, x8, #1
	cset	w8, ne
	tbnz	w8, #0, LBB69_2
	b	LBB69_1
LBB69_1:
	.loc	37 0 16
	ldr	x0, [sp]
	.loc	37 478 22
	ldr	x1, [sp, #8]
	stur	x1, [x29, #-24]
	.loc	37 478 27
	ldr	x2, [sp, #16]
	ldr	x3, [sp, #24]
	stur	x2, [x29, #-16]
	stur	x3, [x29, #-8]
	.loc	37 479 22 is_stmt 1
	bl	__ZN63_$LT$alloc..alloc..Global$u20$as$u20$core..alloc..Allocator$GT$10deallocate17hd458e6558e948129E
Ltmp648:
	.loc	37 478 9
	b	LBB69_2
LBB69_2:
	.cfi_def_cfa wsp, 80
	.loc	37 481 6
	ldp	x29, x30, [sp, #64]
	add	sp, sp, #80
	.cfi_def_cfa_offset 0
	.cfi_restore w30
	.cfi_restore w29
	ret
Ltmp649:
Lfunc_end69:
	.cfi_endproc

	.p2align	2
__ZN78_$LT$std..io..error..repr_bitpacked..Repr$u20$as$u20$core..ops..drop..Drop$GT$4drop17h5a6735240a8ccb8cE:
Lfunc_begin70:
	.loc	13 232 0
	.cfi_startproc
	sub	sp, sp, #48
	.cfi_def_cfa_offset 48
	stp	x29, x30, [sp, #32]
	add	x29, sp, #32
	.cfi_def_cfa w29, 16
	.cfi_offset w30, -8
	.cfi_offset w29, -16
	mov	x8, x0
	stur	x8, [x29, #-8]
Ltmp650:
	.loc	13 236 33 prologue_end
	ldr	x0, [x0]
	add	x8, sp, #8
	str	x8, [sp]
	.loc	13 236 21 is_stmt 0
	bl	__ZN3std2io5error14repr_bitpacked11decode_repr17he96996698f47ee5dE
	ldr	x0, [sp]
	.loc	13 236 72
	bl	__ZN4core3ptr101drop_in_place$LT$std..io..error..ErrorData$LT$alloc..boxed..Box$LT$std..io..error..Custom$GT$$GT$$GT$17hcbc85e7c2d5d00c6E
	.cfi_def_cfa wsp, 48
	.loc	13 238 6 is_stmt 1
	ldp	x29, x30, [sp, #32]
	add	sp, sp, #48
	.cfi_def_cfa_offset 0
	.cfi_restore w30
	.cfi_restore w29
	ret
Ltmp651:
Lfunc_end70:
	.cfi_endproc

	.p2align	2
__ZN78_$LT$std..io..error..repr_bitpacked..Repr$u20$as$u20$core..ops..drop..Drop$GT$4drop28_$u7b$$u7b$closure$u7d$$u7d$17hc6eebccbdf279cadE:
Lfunc_begin71:
	.loc	13 236 0
	.cfi_startproc
	sub	sp, sp, #80
	.cfi_def_cfa_offset 80
	mov	x8, x0
	str	x8, [sp, #32]
Ltmp653:
	.loc	13 236 69 prologue_end
	mov	x8, x0
	str	x8, [sp, #48]
Ltmp654:
	.file	40 "/rustc/c5d82ed7a4ad94a538bb87e5016e7d5ce0bd434b/library/alloc/src" "boxed.rs"
	.loc	40 959 36
	mov	x8, x0
	str	x8, [sp, #56]
Ltmp655:
	.loc	40 1015 44
	mov	x8, x0
	str	x8, [sp, #64]
Ltmp656:
	.loc	10 87 59
	mov	x8, x0
	str	x8, [sp, #72]
Ltmp657:
	.loc	5 201 13
	str	x0, [sp, #16]
Ltmp658:
	.loc	10 87 18
	ldr	x8, [sp, #16]
	str	x8, [sp, #8]
Ltmp659:
	.loc	40 1015 9
	ldr	x8, [sp, #8]
	str	x8, [sp]
Ltmp660:
	.loc	13 236 71
	ldr	x0, [sp]
	add	sp, sp, #80
	.cfi_def_cfa_offset 0
	ret
Ltmp661:
Lfunc_end71:
	.cfi_endproc

	.p2align	2
__ZN81_$LT$core..str..iter..Chars$u20$as$u20$core..iter..traits..iterator..Iterator$GT$4next28_$u7b$$u7b$closure$u7d$$u7d$17h6e71960f1c89b071E:
Lfunc_begin72:
	.loc	1 44 0
	.cfi_startproc
	sub	sp, sp, #32
	.cfi_def_cfa_offset 32
	str	w0, [sp, #16]
Ltmp663:
	.loc	1 44 84 prologue_end
	str	w0, [sp, #20]
Ltmp664:
	.file	41 "/rustc/c5d82ed7a4ad94a538bb87e5016e7d5ce0bd434b/library/core/src/char" "mod.rs"
	.loc	41 128 48
	str	w0, [sp, #24]
Ltmp665:
	.file	42 "/rustc/c5d82ed7a4ad94a538bb87e5016e7d5ce0bd434b/library/core/src/char" "convert.rs"
	.loc	42 25 78
	str	w0, [sp, #28]
	ldr	w0, [sp, #28]
Ltmp666:
	.loc	1 44 87
	add	sp, sp, #32
	.cfi_def_cfa_offset 0
	ret
Ltmp667:
Lfunc_end72:
	.cfi_endproc

	.p2align	2
__ZN87_$LT$core..str..iter..CharIndices$u20$as$u20$core..iter..traits..iterator..Iterator$GT$4next17h120a8424ce681f75E:
Lfunc_begin73:
	.loc	1 138 0
	.cfi_startproc
	sub	sp, sp, #320
	.cfi_def_cfa_offset 320
	stp	x28, x27, [sp, #288]
	stp	x29, x30, [sp, #304]
	add	x29, sp, #304
	.cfi_def_cfa w29, 16
	.cfi_offset w30, -8
	.cfi_offset w29, -16
	.cfi_offset w27, -24
	.cfi_offset w28, -32
	str	x0, [sp, #8]
	mov	x8, x0
	str	x8, [sp, #64]
Ltmp668:
	.loc	1 139 23 prologue_end
	add	x8, x0, #8
	str	x8, [sp, #72]
Ltmp669:
	.loc	2 18 21
	ldr	x10, [x0, #8]
	str	x10, [sp, #80]
	mov	w8, #1
	mov	x9, x8
Ltmp670:
	.loc	3 309 5
	str	x9, [sp, #88]
Ltmp671:
	.loc	2 29 47
	ldr	x8, [x0, #16]
	str	x8, [sp, #96]
Ltmp672:
	.loc	4 183 18
	str	x8, [sp, #104]
	ldr	x8, [sp, #104]
Ltmp673:
	.loc	2 29 65
	str	x10, [sp, #112]
Ltmp674:
	.loc	5 335 9
	str	x10, [sp, #120]
Ltmp675:
	.loc	6 189 18
	str	x10, [sp, #128]
	ldr	x10, [sp, #128]
Ltmp676:
	.loc	2 29 33
	subs	x8, x8, x10
	str	x8, [sp, #136]
	ldr	x8, [sp, #136]
	str	x8, [sp, #144]
Ltmp677:
	.loc	2 35 22
	udiv	x8, x8, x9
	str	x8, [sp, #152]
	ldr	x8, [sp, #152]
	str	x8, [sp, #16]
	stur	x8, [x29, #-144]
Ltmp678:
	.loc	1 140 15
	add	x0, x0, #8
	mov	x8, x0
	stur	x8, [x29, #-136]
Ltmp679:
	.loc	1 44 18
	bl	__ZN4core3str11validations15next_code_point17hc7e266001163165bE
	bl	__ZN4core6option15Option$LT$T$GT$3map17h7179fdb9bd9a214aE
	str	w0, [sp, #44]
Ltmp680:
	.loc	1 140 15
	ldr	w8, [sp, #44]
	subs	w8, w8, #272, lsl #12
	cset	w8, eq
	and	w8, w8, #0x1
	ands	w8, w8, #0x1
	cset	x8, eq
	.loc	1 140 9 is_stmt 0
	subs	x8, x8, #0
	cset	w8, ne
	tbnz	w8, #0, LBB73_2
	b	LBB73_1
LBB73_1:
	.loc	1 0 9
	mov	w8, #1114112
	.loc	1 141 21 is_stmt 1
	str	w8, [sp, #32]
	b	LBB73_3
LBB73_2:
	.loc	1 0 21 is_stmt 0
	ldr	x11, [sp, #8]
	ldr	x10, [sp, #16]
	.loc	1 142 18 is_stmt 1
	ldr	w8, [sp, #44]
	stur	w8, [x29, #-124]
Ltmp681:
	.loc	1 143 29
	ldr	x9, [x11]
	stur	x9, [x29, #-120]
Ltmp682:
	.loc	1 144 27
	add	x12, x11, #8
	stur	x12, [x29, #-112]
Ltmp683:
	.loc	2 18 21
	ldr	x14, [x11, #8]
	stur	x14, [x29, #-104]
	mov	w12, #1
	mov	x13, x12
Ltmp684:
	.loc	3 309 5
	stur	x13, [x29, #-96]
Ltmp685:
	.loc	2 29 47
	ldr	x12, [x11, #16]
	stur	x12, [x29, #-88]
Ltmp686:
	.loc	4 183 18
	stur	x12, [x29, #-80]
	ldur	x12, [x29, #-80]
Ltmp687:
	.loc	2 29 65
	stur	x14, [x29, #-72]
Ltmp688:
	.loc	5 335 9
	stur	x14, [x29, #-64]
Ltmp689:
	.loc	6 189 18
	stur	x14, [x29, #-56]
	ldur	x14, [x29, #-56]
Ltmp690:
	.loc	2 29 33
	subs	x12, x12, x14
	stur	x12, [x29, #-48]
	ldur	x12, [x29, #-48]
	stur	x12, [x29, #-40]
Ltmp691:
	.loc	2 35 22
	udiv	x12, x12, x13
	stur	x12, [x29, #-32]
	ldur	x12, [x29, #-32]
	stur	x12, [x29, #-24]
Ltmp692:
	.loc	1 145 38
	subs	x12, x10, x12
	.loc	1 145 17 is_stmt 0
	ldr	x10, [x11]
	add	x10, x10, x12
	str	x10, [x11]
	.loc	1 146 22 is_stmt 1
	str	x9, [sp, #48]
	str	w8, [sp, #56]
	.loc	1 146 17 is_stmt 0
	ldr	x9, [sp, #48]
	ldr	w8, [sp, #56]
	str	x9, [sp, #24]
	str	w8, [sp, #32]
Ltmp693:
	.loc	1 147 13 is_stmt 1
	b	LBB73_3
Ltmp694:
LBB73_3:
	.loc	1 149 6
	ldr	x0, [sp, #24]
	ldr	w1, [sp, #32]
	.cfi_def_cfa wsp, 320
	ldp	x29, x30, [sp, #304]
	ldp	x28, x27, [sp, #288]
	add	sp, sp, #320
	.cfi_def_cfa_offset 0
	.cfi_restore w30
	.cfi_restore w29
	.cfi_restore w27
	.cfi_restore w28
	ret
Ltmp695:
Lfunc_end73:
	.cfi_endproc

	.p2align	2
__ZN91_$LT$core..slice..iter..Iter$LT$T$GT$$u20$as$u20$core..iter..traits..iterator..Iterator$GT$4next17h86b9252a26c4961dE:
Lfunc_begin74:
	.loc	2 134 0
	.cfi_startproc
	sub	sp, sp, #224
	.cfi_def_cfa_offset 224
	stp	x29, x30, [sp, #208]
	add	x29, sp, #208
	.cfi_def_cfa w29, 16
	.cfi_offset w30, -8
	.cfi_offset w29, -16
	.cfi_remember_state
	str	x0, [sp]
	mov	x8, x0
	str	x8, [sp, #48]
Ltmp696:
	.loc	2 142 29 prologue_end
	ldr	x0, [x0]
	str	x0, [sp, #64]
	bl	__ZN4core3ptr7mut_ptr31_$LT$impl$u20$$BP$mut$u20$T$GT$7is_null17he1e87271ae509351E
	mov	w8, #1
	.loc	2 143 24
	tbnz	w8, #0, LBB74_2
	b	LBB74_1
LBB74_1:
	.loc	2 0 24 is_stmt 0
	ldr	x9, [sp]
	.loc	2 146 24 is_stmt 1
	ldr	x8, [x9]
	str	x8, [sp, #72]
	ldr	x9, [x9, #8]
	subs	x8, x8, x9
	cset	w8, eq
	tbnz	w8, #0, LBB74_4
	b	LBB74_3
LBB74_2:
	.loc	2 0 24 is_stmt 0
	ldr	x8, [sp]
	.loc	2 144 33 is_stmt 1
	ldr	x0, [x8, #8]
	bl	__ZN4core3ptr9const_ptr33_$LT$impl$u20$$BP$const$u20$T$GT$7is_null17hba248d6a37fcefdaE
	.loc	2 143 21
	b	LBB74_1
LBB74_3:
	.loc	2 0 21 is_stmt 0
	ldr	x8, [sp]
	.loc	2 149 30 is_stmt 1
	str	x8, [sp, #80]
	mov	w8, #0
Ltmp697:
	.loc	2 86 20
	tbnz	w8, #0, LBB74_6
	b	LBB74_7
Ltmp698:
LBB74_4:
	.loc	2 147 25
	str	xzr, [sp, #8]
	.loc	2 146 21
	b	LBB74_5
LBB74_5:
	.loc	2 152 14
	ldr	x0, [sp, #8]
	.cfi_def_cfa wsp, 224
	ldp	x29, x30, [sp, #208]
	add	sp, sp, #224
	.cfi_def_cfa_offset 0
	.cfi_restore w30
	.cfi_restore w29
	ret
LBB74_6:
	.cfi_restore_state
	.loc	2 0 14 is_stmt 0
	ldr	x8, [sp]
Ltmp699:
	.loc	2 67 29 is_stmt 1
	ldr	x9, [x8, #8]
	stur	x9, [x29, #-64]
Ltmp700:
	.loc	4 1181 9
	stur	x9, [x29, #-56]
Ltmp701:
	.loc	4 50 9
	stur	x9, [x29, #-48]
Ltmp702:
	.loc	4 1163 9
	stur	x9, [x29, #-40]
Ltmp703:
	.loc	4 538 18
	subs	x9, x9, #1
	stur	x9, [x29, #-32]
	ldur	x9, [x29, #-32]
	stur	x9, [x29, #-24]
Ltmp704:
	.loc	4 89 29
	stur	x9, [x29, #-16]
Ltmp705:
	.loc	9 118 36
	str	x9, [sp, #40]
	.loc	9 118 14 is_stmt 0
	ldr	x9, [sp, #40]
	str	x9, [sp, #32]
	ldr	x9, [sp, #32]
Ltmp706:
	.loc	2 67 17 is_stmt 1
	str	x9, [x8, #8]
	.loc	2 88 21
	ldr	x8, [x8]
	stur	x8, [x29, #-8]
	str	x8, [sp, #16]
	.loc	2 86 17
	b	LBB74_8
LBB74_7:
	.loc	2 0 17 is_stmt 0
	ldr	x10, [sp]
	.loc	2 90 31 is_stmt 1
	ldr	x8, [x10]
	str	x8, [sp, #88]
Ltmp707:
	.loc	5 335 9
	str	x8, [sp, #96]
Ltmp708:
	.loc	2 93 64
	ldr	x9, [x10]
	str	x9, [sp, #104]
Ltmp709:
	.loc	5 335 9
	stur	x9, [x29, #-96]
Ltmp710:
	.loc	6 1017 18
	stur	x9, [x29, #-88]
Ltmp711:
	.loc	6 470 18
	add	x9, x9, #1
	stur	x9, [x29, #-80]
	ldur	x9, [x29, #-80]
	stur	x9, [x29, #-72]
Ltmp712:
	.loc	5 201 13
	str	x9, [sp, #24]
Ltmp713:
	.loc	2 93 21
	ldr	x9, [sp, #24]
	str	x9, [x10]
	.loc	2 94 21
	str	x8, [sp, #16]
Ltmp714:
	.loc	2 86 17
	b	LBB74_8
Ltmp715:
LBB74_8:
	.loc	2 149 30
	ldr	x8, [sp, #16]
	.loc	2 149 25 is_stmt 0
	str	x8, [sp, #8]
	.loc	2 146 21 is_stmt 1
	b	LBB74_5
Ltmp716:
Lfunc_end74:
	.cfi_endproc

	.p2align	2
__ZN95_$LT$core..str..pattern..MultiCharEqPattern$LT$C$GT$$u20$as$u20$core..str..pattern..Pattern$GT$13into_searcher17hb12913be236c4a8dE:
Lfunc_begin75:
	.loc	8 646 0
	.cfi_startproc
	.cfi_personality 155, _rust_eh_personality
	.cfi_lsda 16, Lexception12
	sub	sp, sp, #240
	.cfi_def_cfa_offset 240
	stp	x29, x30, [sp, #224]
	add	x29, sp, #224
	.cfi_def_cfa w29, 16
	.cfi_offset w30, -8
	.cfi_offset w29, -16
	str	x8, [sp, #24]
	str	x0, [sp, #32]
	str	x1, [sp, #40]
	mov	x8, x0
	str	x8, [sp, #112]
	str	x1, [sp, #120]
Ltmp720:
	.loc	8 647 72 prologue_end
	mov	x8, x0
	stur	x8, [x29, #-96]
	stur	x1, [x29, #-88]
Ltmp721:
	.loc	23 840 46
	mov	x8, x0
	stur	x8, [x29, #-80]
	stur	x1, [x29, #-72]
Ltmp722:
	.loc	23 783 23
	mov	x8, x0
	stur	x8, [x29, #-64]
	stur	x1, [x29, #-56]
Ltmp723:
	.loc	23 327 18
	stur	x0, [x29, #-48]
	stur	x1, [x29, #-40]
	ldur	x8, [x29, #-48]
	str	x8, [sp, #48]
	ldur	x8, [x29, #-40]
	str	x8, [sp, #56]
	b	LBB75_1
Ltmp724:
LBB75_1:
	.loc	23 0 18 is_stmt 0
	ldr	x1, [sp, #56]
	ldr	x0, [sp, #48]
	.loc	23 783 23 is_stmt 1
	stur	x0, [x29, #-32]
	stur	x1, [x29, #-24]
Ltmp717:
Ltmp725:
	.loc	30 735 9
	bl	__ZN4core5slice4iter13Iter$LT$T$GT$3new17h7bafec2af9bfe131E
	str	x0, [sp, #8]
	str	x1, [sp, #16]
Ltmp718:
	b	LBB75_4
Ltmp726:
LBB75_2:
	.loc	8 646 5
	ldur	x0, [x29, #-16]
	bl	__Unwind_Resume
LBB75_3:
Ltmp719:
	.loc	8 0 5 is_stmt 0
	mov	x8, x1
	stur	x0, [x29, #-16]
	stur	w8, [x29, #-8]
	b	LBB75_2
LBB75_4:
	ldr	x9, [sp, #24]
	ldr	x8, [sp, #40]
	ldr	x10, [sp, #32]
	ldr	x11, [sp, #16]
	ldr	x12, [sp, #8]
Ltmp727:
	.loc	23 783 9 is_stmt 1
	str	x12, [sp, #88]
	str	x11, [sp, #96]
Ltmp728:
	.loc	23 840 9
	str	xzr, [sp, #64]
	ldr	x12, [sp, #88]
	ldr	x11, [sp, #96]
	str	x12, [sp, #72]
	str	x11, [sp, #80]
Ltmp729:
	.loc	8 647 9
	str	x10, [x9]
	str	x8, [x9, #8]
	ldr	q0, [sp, #64]
	str	q0, [x9, #16]
	ldr	x8, [sp, #80]
	str	x8, [x9, #32]
	.cfi_def_cfa wsp, 240
	.loc	8 648 6
	ldp	x29, x30, [sp, #224]
	add	sp, sp, #240
	.cfi_def_cfa_offset 0
	.cfi_restore w30
	.cfi_restore w29
	ret
Ltmp730:
Lfunc_end75:
	.cfi_endproc
	.section	__TEXT,__gcc_except_tab
	.p2align	2
GCC_except_table75:
Lexception12:
	.byte	255
	.byte	255
	.byte	1
	.uleb128 Lcst_end12-Lcst_begin12
Lcst_begin12:
	.uleb128 Ltmp717-Lfunc_begin75
	.uleb128 Ltmp718-Ltmp717
	.uleb128 Ltmp719-Lfunc_begin75
	.byte	0
	.uleb128 Ltmp718-Lfunc_begin75
	.uleb128 Lfunc_end75-Ltmp718
	.byte	0
	.byte	0
Lcst_end12:
	.p2align	2

	.section	__TEXT,__text,regular,pure_instructions
	.p2align	2
__ZN96_$LT$core..str..iter..Chars$u20$as$u20$core..iter..traits..double_ended..DoubleEndedIterator$GT$9next_back28_$u7b$$u7b$closure$u7d$$u7d$17hf7c3906cd17b32c5E:
Lfunc_begin76:
	.loc	1 84 0
	.cfi_startproc
	sub	sp, sp, #32
	.cfi_def_cfa_offset 32
	str	w0, [sp, #16]
Ltmp732:
	.loc	1 84 92 prologue_end
	str	w0, [sp, #20]
Ltmp733:
	.loc	41 128 48
	str	w0, [sp, #24]
Ltmp734:
	.loc	42 25 78
	str	w0, [sp, #28]
	ldr	w0, [sp, #28]
Ltmp735:
	.loc	1 84 95
	add	sp, sp, #32
	.cfi_def_cfa_offset 0
	ret
Ltmp736:
Lfunc_end76:
	.cfi_endproc

	.p2align	2
__ZN97_$LT$core..str..pattern..MultiCharEqSearcher$LT$C$GT$$u20$as$u20$core..str..pattern..Searcher$GT$4next17ha61745a98d825cb6E:
Lfunc_begin77:
	.loc	8 658 0
	.cfi_startproc
	sub	sp, sp, #320
	.cfi_def_cfa_offset 320
	stp	x28, x27, [sp, #288]
	stp	x29, x30, [sp, #304]
	add	x29, sp, #304
	.cfi_def_cfa w29, 16
	.cfi_offset w30, -8
	.cfi_offset w29, -16
	.cfi_offset w27, -24
	.cfi_offset w28, -32
	.cfi_remember_state
	str	x8, [sp, #16]
	mov	x8, x0
	str	x8, [sp, #24]
	mov	x0, x8
	str	x0, [sp, #56]
Ltmp737:
	.loc	8 659 17 prologue_end
	add	x0, x8, #16
	mov	x9, x0
	str	x9, [sp, #64]
Ltmp738:
	.loc	8 662 23
	add	x9, x8, #24
	str	x9, [sp, #72]
Ltmp739:
	.loc	2 18 21
	ldr	x10, [x8, #24]
	str	x10, [sp, #80]
	mov	w9, #1
Ltmp740:
	.loc	3 309 5
	str	x9, [sp, #88]
Ltmp741:
	.loc	2 29 47
	ldr	x8, [x8, #32]
	str	x8, [sp, #96]
Ltmp742:
	.loc	4 183 18
	str	x8, [sp, #104]
	ldr	x8, [sp, #104]
Ltmp743:
	.loc	2 29 65
	str	x10, [sp, #112]
Ltmp744:
	.loc	5 335 9
	str	x10, [sp, #120]
Ltmp745:
	.loc	6 189 18
	str	x10, [sp, #128]
	ldr	x10, [sp, #128]
Ltmp746:
	.loc	2 29 33
	subs	x8, x8, x10
	str	x8, [sp, #136]
	ldr	x8, [sp, #136]
	str	x8, [sp, #144]
Ltmp747:
	.loc	2 35 22
	udiv	x8, x8, x9
	str	x8, [sp, #152]
	ldr	x8, [sp, #152]
	str	x8, [sp, #32]
	stur	x8, [x29, #-144]
Ltmp748:
	.loc	8 663 31
	bl	__ZN87_$LT$core..str..iter..CharIndices$u20$as$u20$core..iter..traits..iterator..Iterator$GT$4next17h120a8424ce681f75E
	str	x0, [sp, #40]
	str	w1, [sp, #48]
	.loc	8 663 16 is_stmt 0
	ldr	w8, [sp, #48]
	subs	w8, w8, #272, lsl #12
	cset	w8, eq
	and	w8, w8, #0x1
	ands	w8, w8, #0x1
	cset	x8, eq
	subs	x8, x8, #1
	cset	w8, ne
	tbnz	w8, #0, LBB77_2
	b	LBB77_1
LBB77_1:
	.loc	8 0 16
	ldr	x0, [sp, #24]
	ldr	x8, [sp, #32]
	.loc	8 663 22
	ldr	x9, [sp, #40]
	str	x9, [sp]
	stur	x9, [x29, #-136]
	.loc	8 663 25
	ldr	w1, [sp, #48]
	stur	w1, [x29, #-124]
	.loc	8 664 23 is_stmt 1
	add	x9, x0, #24
	stur	x9, [x29, #-120]
Ltmp749:
	.loc	2 18 21
	ldr	x11, [x0, #24]
	stur	x11, [x29, #-112]
	mov	w9, #1
	mov	x10, x9
Ltmp750:
	.loc	3 309 5
	stur	x10, [x29, #-104]
Ltmp751:
	.loc	2 29 47
	ldr	x9, [x0, #32]
	stur	x9, [x29, #-96]
Ltmp752:
	.loc	4 183 18
	stur	x9, [x29, #-88]
	ldur	x9, [x29, #-88]
Ltmp753:
	.loc	2 29 65
	stur	x11, [x29, #-80]
Ltmp754:
	.loc	5 335 9
	stur	x11, [x29, #-72]
Ltmp755:
	.loc	6 189 18
	stur	x11, [x29, #-64]
	ldur	x11, [x29, #-64]
Ltmp756:
	.loc	2 29 33
	subs	x9, x9, x11
	stur	x9, [x29, #-56]
	ldur	x9, [x29, #-56]
	stur	x9, [x29, #-48]
Ltmp757:
	.loc	2 35 22
	udiv	x9, x9, x10
	stur	x9, [x29, #-40]
	ldur	x9, [x29, #-40]
	stur	x9, [x29, #-32]
Ltmp758:
	.loc	8 665 28
	subs	x8, x8, x9
	str	x8, [sp, #8]
	stur	x8, [x29, #-24]
Ltmp759:
	.loc	8 666 16
	bl	__ZN53_$LT$F$u20$as$u20$core..str..pattern..MultiCharEq$GT$7matches17h52a7ada6a6ec3f2dE
	tbnz	w0, #0, LBB77_5
	b	LBB77_4
Ltmp760:
LBB77_2:
	.loc	8 0 16 is_stmt 0
	ldr	x9, [sp, #16]
	mov	w8, #2
	.loc	8 672 9 is_stmt 1
	str	x8, [x9]
Ltmp761:
	.loc	8 673 6
	b	LBB77_3
LBB77_3:
	.cfi_def_cfa wsp, 320
	ldp	x29, x30, [sp, #304]
	ldp	x28, x27, [sp, #288]
	add	sp, sp, #320
	.cfi_def_cfa_offset 0
	.cfi_restore w30
	.cfi_restore w29
	.cfi_restore w27
	.cfi_restore w28
	ret
LBB77_4:
	.cfi_restore_state
	.loc	8 0 6 is_stmt 0
	ldr	x9, [sp, #16]
	ldr	x10, [sp]
	ldr	x8, [sp, #8]
Ltmp762:
	.loc	8 669 46 is_stmt 1
	add	x8, x10, x8
	.loc	8 669 24 is_stmt 0
	str	x10, [x9, #8]
	str	x8, [x9, #16]
	mov	w8, #1
	str	x8, [x9]
	.loc	8 669 17
	b	LBB77_6
LBB77_5:
	.loc	8 0 17
	ldr	x8, [sp, #16]
	ldr	x10, [sp]
	ldr	x9, [sp, #8]
	.loc	8 667 45 is_stmt 1
	add	x9, x10, x9
	.loc	8 667 24 is_stmt 0
	str	x10, [x8, #8]
	str	x9, [x8, #16]
	str	xzr, [x8]
	.loc	8 667 17
	b	LBB77_6
Ltmp763:
LBB77_6:
	.loc	8 673 6 is_stmt 1
	b	LBB77_3
Ltmp764:
Lfunc_end77:
	.cfi_endproc

	.p2align	2
__ZN99_$LT$core..str..pattern..CharPredicateSearcher$LT$F$GT$$u20$as$u20$core..str..pattern..Searcher$GT$11next_reject17hd9b1c25fab79e8b4E:
Lfunc_begin78:
	.loc	8 757 0
	.cfi_startproc
	sub	sp, sp, #32
	.cfi_def_cfa_offset 32
	stp	x29, x30, [sp, #16]
	add	x29, sp, #16
	.cfi_def_cfa w29, 16
	.cfi_offset w30, -8
	.cfi_offset w29, -16
	mov	x9, x0
	str	x9, [sp, #8]
Ltmp765:
	.loc	8 758 13 prologue_end
	bl	__ZN4core3str7pattern8Searcher11next_reject17h3c600fbefc7a58e0E
	.cfi_def_cfa wsp, 32
	.loc	8 759 10
	ldp	x29, x30, [sp, #16]
	add	sp, sp, #32
	.cfi_def_cfa_offset 0
	.cfi_restore w30
	.cfi_restore w29
	ret
Ltmp766:
Lfunc_end78:
	.cfi_endproc

	.p2align	2
__ZN10calculator4main17h206c8d0951c259afE:
Lfunc_begin79:
	.loc	22 1 0
	.cfi_startproc
	.cfi_personality 155, _rust_eh_personality
	.cfi_lsda 16, Lexception13
	stp	x28, x27, [sp, #-32]!
	.cfi_def_cfa_offset 32
	stp	x29, x30, [sp, #16]
	add	x29, sp, #16
	.cfi_def_cfa w29, 16
	.cfi_offset w30, -8
	.cfi_offset w29, -16
	.cfi_offset w27, -24
	.cfi_offset w28, -32
	.cfi_remember_state
	sub	sp, sp, #912
	add	x8, sp, #304
	str	x8, [sp, #288]
	adrp	x0, l___unnamed_21@PAGE
	add	x0, x0, l___unnamed_21@PAGEOFF
	mov	w9, #1
	mov	x1, x9
	adrp	x2, l___unnamed_7@PAGE
	add	x2, x2, l___unnamed_7@PAGEOFF
	mov	x3, #0
Ltmp877:
	.loc	22 3 5 prologue_end
	bl	__ZN4core3fmt9Arguments6new_v117h681e5db68844b188E
	ldr	x0, [sp, #288]
	bl	__ZN3std2io5stdio6_print17hbd389a4b08e30d67E
	add	x8, sp, #352
	.loc	22 4 17
	bl	__ZN5alloc6string6String3new17h512c7a374ac8640bE
Ltmp767:
Ltmp878:
	.loc	22 5 5
	bl	__ZN3std2io5stdio5stdin17h796fd2f591938cb5E
	str	x0, [sp, #296]
Ltmp768:
	b	LBB79_3
Ltmp879:
LBB79_1:
Ltmp874:
	.loc	22 0 5 is_stmt 0
	add	x0, sp, #352
	.loc	22 35 1 is_stmt 1
	bl	__ZN4core3ptr42drop_in_place$LT$alloc..string..String$GT$17hb29d7127b8a72c9aE
Ltmp875:
	b	LBB79_68
LBB79_2:
Ltmp866:
	.loc	22 0 1 is_stmt 0
	mov	x8, x1
	stur	x0, [x29, #-64]
	stur	w8, [x29, #-56]
	b	LBB79_1
LBB79_3:
	ldr	x8, [sp, #296]
	add	x0, sp, #392
Ltmp880:
	.loc	22 5 5 is_stmt 1
	str	x8, [sp, #392]
Ltmp769:
	add	x8, sp, #376
	add	x1, sp, #352
	bl	__ZN3std2io5stdio5Stdin9read_line17hfe725216531ccf22E
Ltmp770:
	b	LBB79_4
LBB79_4:
Ltmp771:
	.loc	22 0 5 is_stmt 0
	add	x0, sp, #376
	adrp	x1, l___unnamed_22@PAGE
	add	x1, x1, l___unnamed_22@PAGEOFF
	mov	w8, #19
	mov	x2, x8
	adrp	x3, l___unnamed_23@PAGE
	add	x3, x3, l___unnamed_23@PAGEOFF
	.loc	22 5 5
	bl	__ZN4core6result19Result$LT$T$C$E$GT$6expect17h19a738dc3ab14f9fE
Ltmp772:
	b	LBB79_5
LBB79_5:
Ltmp773:
	.loc	22 0 5
	add	x8, sp, #400
	adrp	x0, l___unnamed_24@PAGE
	add	x0, x0, l___unnamed_24@PAGEOFF
	mov	w9, #1
	mov	x1, x9
	adrp	x2, l___unnamed_7@PAGE
	add	x2, x2, l___unnamed_7@PAGEOFF
	mov	x3, #0
	.loc	22 8 5 is_stmt 1
	bl	__ZN4core3fmt9Arguments6new_v117h681e5db68844b188E
Ltmp774:
	b	LBB79_6
LBB79_6:
Ltmp775:
	.loc	22 0 5 is_stmt 0
	add	x0, sp, #400
	.loc	22 8 5
	bl	__ZN3std2io5stdio6_print17hbd389a4b08e30d67E
Ltmp776:
	b	LBB79_7
LBB79_7:
Ltmp777:
	.loc	22 0 5
	add	x8, sp, #448
	.loc	22 9 17 is_stmt 1
	bl	__ZN5alloc6string6String3new17h512c7a374ac8640bE
Ltmp778:
	b	LBB79_8
LBB79_8:
Ltmp779:
Ltmp881:
	.loc	22 10 5
	bl	__ZN3std2io5stdio5stdin17h796fd2f591938cb5E
	str	x0, [sp, #280]
Ltmp780:
	b	LBB79_11
Ltmp882:
LBB79_9:
Ltmp872:
	.loc	22 0 5 is_stmt 0
	add	x0, sp, #448
	.loc	22 35 1 is_stmt 1
	bl	__ZN4core3ptr42drop_in_place$LT$alloc..string..String$GT$17hb29d7127b8a72c9aE
Ltmp873:
	b	LBB79_1
LBB79_10:
Ltmp863:
	.loc	22 0 1 is_stmt 0
	mov	x8, x1
	stur	x0, [x29, #-64]
	stur	w8, [x29, #-56]
	b	LBB79_9
LBB79_11:
	ldr	x8, [sp, #280]
	add	x0, sp, #488
Ltmp883:
	.loc	22 10 5 is_stmt 1
	str	x8, [sp, #488]
Ltmp781:
	add	x8, sp, #472
	add	x1, sp, #448
	bl	__ZN3std2io5stdio5Stdin9read_line17hfe725216531ccf22E
Ltmp782:
	b	LBB79_12
LBB79_12:
Ltmp783:
	.loc	22 0 5 is_stmt 0
	add	x0, sp, #472
	adrp	x1, l___unnamed_22@PAGE
	add	x1, x1, l___unnamed_22@PAGEOFF
	mov	w8, #19
	mov	x2, x8
	adrp	x3, l___unnamed_25@PAGE
	add	x3, x3, l___unnamed_25@PAGEOFF
	.loc	22 10 5
	bl	__ZN4core6result19Result$LT$T$C$E$GT$6expect17h19a738dc3ab14f9fE
Ltmp784:
	b	LBB79_13
LBB79_13:
Ltmp785:
	.loc	22 0 5
	add	x8, sp, #496
	adrp	x0, l___unnamed_26@PAGE
	add	x0, x0, l___unnamed_26@PAGEOFF
	mov	w9, #1
	mov	x1, x9
	adrp	x2, l___unnamed_7@PAGE
	add	x2, x2, l___unnamed_7@PAGEOFF
	mov	x3, #0
	.loc	22 14 5 is_stmt 1
	bl	__ZN4core3fmt9Arguments6new_v117h681e5db68844b188E
Ltmp786:
	b	LBB79_14
LBB79_14:
Ltmp787:
	.loc	22 0 5 is_stmt 0
	add	x0, sp, #496
	.loc	22 14 5
	bl	__ZN3std2io5stdio6_print17hbd389a4b08e30d67E
Ltmp788:
	b	LBB79_15
LBB79_15:
Ltmp789:
	.loc	22 0 5
	add	x8, sp, #544
	.loc	22 15 25 is_stmt 1
	bl	__ZN5alloc6string6String3new17h512c7a374ac8640bE
Ltmp790:
	b	LBB79_16
LBB79_16:
Ltmp791:
Ltmp884:
	.loc	22 16 5
	bl	__ZN3std2io5stdio5stdin17h796fd2f591938cb5E
	str	x0, [sp, #272]
Ltmp792:
	b	LBB79_19
Ltmp885:
LBB79_17:
Ltmp870:
	.loc	22 0 5 is_stmt 0
	add	x0, sp, #544
	.loc	22 35 1 is_stmt 1
	bl	__ZN4core3ptr42drop_in_place$LT$alloc..string..String$GT$17hb29d7127b8a72c9aE
Ltmp871:
	b	LBB79_9
LBB79_18:
Ltmp869:
	.loc	22 0 1 is_stmt 0
	mov	x8, x1
	stur	x0, [x29, #-64]
	stur	w8, [x29, #-56]
	b	LBB79_17
LBB79_19:
	ldr	x8, [sp, #272]
	add	x0, sp, #584
Ltmp886:
	.loc	22 16 5 is_stmt 1
	str	x8, [sp, #584]
Ltmp793:
	add	x8, sp, #568
	add	x1, sp, #544
	bl	__ZN3std2io5stdio5Stdin9read_line17hfe725216531ccf22E
Ltmp794:
	b	LBB79_20
LBB79_20:
Ltmp795:
	.loc	22 0 5 is_stmt 0
	add	x0, sp, #568
	adrp	x1, l___unnamed_22@PAGE
	add	x1, x1, l___unnamed_22@PAGEOFF
	mov	w8, #19
	mov	x2, x8
	adrp	x3, l___unnamed_27@PAGE
	add	x3, x3, l___unnamed_27@PAGEOFF
	.loc	22 16 5
	bl	__ZN4core6result19Result$LT$T$C$E$GT$6expect17h19a738dc3ab14f9fE
Ltmp796:
	b	LBB79_21
LBB79_21:
Ltmp797:
	.loc	22 0 5
	add	x0, sp, #544
	.loc	22 20 11 is_stmt 1
	bl	__ZN65_$LT$alloc..string..String$u20$as$u20$core..ops..deref..Deref$GT$5deref17h3aa06b37222c244bE
	str	x0, [sp, #256]
	str	x1, [sp, #264]
Ltmp798:
	b	LBB79_22
LBB79_22:
Ltmp799:
	.loc	22 0 11 is_stmt 0
	ldr	x1, [sp, #264]
	ldr	x0, [sp, #256]
	.loc	22 20 11
	bl	__ZN4core3str21_$LT$impl$u20$str$GT$4trim17h59c4ddee6d919106E
	str	x0, [sp, #240]
	str	x1, [sp, #248]
Ltmp800:
	b	LBB79_23
LBB79_23:
Ltmp801:
	.loc	22 0 11
	ldr	x1, [sp, #248]
	ldr	x0, [sp, #240]
	adrp	x2, l___unnamed_28@PAGE
	add	x2, x2, l___unnamed_28@PAGEOFF
	mov	w8, #1
	mov	x3, x8
	.loc	22 21 9 is_stmt 1
	bl	__ZN4core3str6traits54_$LT$impl$u20$core..cmp..PartialEq$u20$for$u20$str$GT$2eq17heedce7af6d6a1d87E
	str	w0, [sp, #236]
Ltmp802:
	b	LBB79_24
LBB79_24:
	.loc	22 0 9 is_stmt 0
	ldr	w8, [sp, #236]
	.loc	22 21 9
	tbnz	w8, #0, LBB79_26
	b	LBB79_25
LBB79_25:
Ltmp803:
	.loc	22 0 9
	ldr	x1, [sp, #248]
	ldr	x0, [sp, #240]
	adrp	x2, l___unnamed_29@PAGE
	add	x2, x2, l___unnamed_29@PAGEOFF
	mov	w8, #1
	mov	x3, x8
	.loc	22 25 9 is_stmt 1
	bl	__ZN4core3str6traits54_$LT$impl$u20$core..cmp..PartialEq$u20$for$u20$str$GT$2eq17heedce7af6d6a1d87E
	str	w0, [sp, #232]
Ltmp804:
	b	LBB79_42
LBB79_26:
Ltmp833:
	.loc	22 0 9 is_stmt 0
	add	x0, sp, #352
	.loc	22 23 13 is_stmt 1
	bl	__ZN65_$LT$alloc..string..String$u20$as$u20$core..ops..deref..Deref$GT$5deref17h3aa06b37222c244bE
	str	x0, [sp, #216]
	str	x1, [sp, #224]
Ltmp834:
	b	LBB79_27
LBB79_27:
Ltmp835:
	.loc	22 0 13 is_stmt 0
	ldr	x1, [sp, #224]
	ldr	x0, [sp, #216]
	.loc	22 23 13
	bl	__ZN4core3str21_$LT$impl$u20$str$GT$4trim17h59c4ddee6d919106E
	str	x0, [sp, #200]
	str	x1, [sp, #208]
Ltmp836:
	b	LBB79_28
LBB79_28:
Ltmp837:
	.loc	22 0 13
	ldr	x1, [sp, #208]
	ldr	x0, [sp, #200]
	.loc	22 23 13
	bl	__ZN4core3str21_$LT$impl$u20$str$GT$5parse17h077d65e26ec0d31cE
	str	x0, [sp, #192]
Ltmp838:
	b	LBB79_29
LBB79_29:
	.loc	22 0 13
	ldr	x8, [sp, #192]
	.loc	22 23 13
	stur	x8, [x29, #-48]
	ldur	x8, [x29, #-48]
	str	x8, [sp, #664]
	ldr	x0, [sp, #664]
Ltmp839:
	adrp	x1, l___unnamed_30@PAGE
	add	x1, x1, l___unnamed_30@PAGEOFF
	bl	__ZN4core6result19Result$LT$T$C$E$GT$6unwrap17hbea003f619e347b0E
	str	w0, [sp, #188]
Ltmp840:
	b	LBB79_30
LBB79_30:
Ltmp841:
	.loc	22 0 13
	add	x0, sp, #448
	.loc	22 23 48
	bl	__ZN65_$LT$alloc..string..String$u20$as$u20$core..ops..deref..Deref$GT$5deref17h3aa06b37222c244bE
	str	x0, [sp, #168]
	str	x1, [sp, #176]
Ltmp842:
	b	LBB79_31
LBB79_31:
Ltmp843:
	.loc	22 0 48
	ldr	x1, [sp, #176]
	ldr	x0, [sp, #168]
	.loc	22 23 48
	bl	__ZN4core3str21_$LT$impl$u20$str$GT$4trim17h59c4ddee6d919106E
	str	x0, [sp, #152]
	str	x1, [sp, #160]
Ltmp844:
	b	LBB79_32
LBB79_32:
Ltmp845:
	.loc	22 0 48
	ldr	x1, [sp, #160]
	ldr	x0, [sp, #152]
	.loc	22 23 48
	bl	__ZN4core3str21_$LT$impl$u20$str$GT$5parse17h077d65e26ec0d31cE
	str	x0, [sp, #144]
Ltmp846:
	b	LBB79_33
LBB79_33:
	.loc	22 0 48
	ldr	x8, [sp, #144]
	.loc	22 23 48
	stur	x8, [x29, #-40]
	ldur	x8, [x29, #-40]
	stur	x8, [x29, #-256]
	ldur	x0, [x29, #-256]
Ltmp847:
	adrp	x1, l___unnamed_31@PAGE
	add	x1, x1, l___unnamed_31@PAGEOFF
	bl	__ZN4core6result19Result$LT$T$C$E$GT$6unwrap17hbea003f619e347b0E
	str	w0, [sp, #140]
Ltmp848:
	b	LBB79_34
LBB79_34:
	.loc	22 0 48
	ldr	w8, [sp, #188]
	ldr	w9, [sp, #140]
	.loc	22 23 13
	adds	w8, w8, w9
	str	w8, [sp, #136]
	cset	w8, vs
	tbnz	w8, #0, LBB79_36
	b	LBB79_35
LBB79_35:
	.loc	22 0 13
	ldr	w8, [sp, #136]
	add	x0, sp, #660
	.loc	22 23 13
	str	w8, [sp, #660]
Ltmp849:
	.loc	22 21 16 is_stmt 1
	bl	__ZN4core3fmt10ArgumentV111new_display17hd9502b70d4cb1d1cE
	str	x0, [sp, #120]
	str	x1, [sp, #128]
Ltmp850:
	b	LBB79_38
LBB79_36:
Ltmp867:
	.loc	22 0 16 is_stmt 0
	adrp	x0, _str.1@PAGE
	add	x0, x0, _str.1@PAGEOFF
	mov	w8, #28
	mov	x1, x8
	adrp	x2, l___unnamed_32@PAGE
	add	x2, x2, l___unnamed_32@PAGEOFF
	.loc	22 23 13 is_stmt 1
	bl	__ZN4core9panicking5panic17h77e4e51e80f61eb1E
Ltmp868:
	b	LBB79_37
LBB79_37:
	.loc	22 0 13 is_stmt 0
	brk	#0x1
LBB79_38:
	ldr	x8, [sp, #128]
	ldr	x9, [sp, #120]
	add	x2, sp, #640
	.loc	22 21 16 is_stmt 1
	str	x9, [sp, #640]
	str	x8, [sp, #648]
Ltmp851:
	add	x8, sp, #592
	adrp	x0, l___unnamed_33@PAGE
	add	x0, x0, l___unnamed_33@PAGEOFF
	mov	w9, #2
	mov	x1, x9
	mov	w9, #1
	mov	x3, x9
	bl	__ZN4core3fmt9Arguments6new_v117h681e5db68844b188E
Ltmp852:
	b	LBB79_39
LBB79_39:
Ltmp853:
	.loc	22 0 16 is_stmt 0
	add	x0, sp, #592
	.loc	22 21 16
	bl	__ZN3std2io5stdio6_print17hbd389a4b08e30d67E
Ltmp854:
	b	LBB79_40
LBB79_40:
	b	LBB79_41
LBB79_41:
Ltmp855:
	.loc	22 0 16
	add	x0, sp, #352
	.loc	22 32 8 is_stmt 1
	bl	__ZN5alloc6string6String3len17h01b29cc5352c50f4E
	str	x0, [sp, #112]
Ltmp856:
	b	LBB79_60
LBB79_42:
	.loc	22 0 8 is_stmt 0
	ldr	w8, [sp, #232]
	.loc	22 25 9 is_stmt 1
	tbnz	w8, #0, LBB79_44
	b	LBB79_43
LBB79_43:
Ltmp805:
	.loc	22 0 9 is_stmt 0
	sub	x8, x29, #160
	adrp	x0, l___unnamed_34@PAGE
	add	x0, x0, l___unnamed_34@PAGEOFF
	mov	w9, #1
	mov	x1, x9
	adrp	x2, l___unnamed_7@PAGE
	add	x2, x2, l___unnamed_7@PAGEOFF
	mov	x3, #0
	.loc	22 29 14 is_stmt 1
	bl	__ZN4core3fmt9Arguments6new_v117h681e5db68844b188E
Ltmp806:
	b	LBB79_58
LBB79_44:
Ltmp809:
	.loc	22 0 14 is_stmt 0
	add	x0, sp, #352
	.loc	22 27 13 is_stmt 1
	bl	__ZN65_$LT$alloc..string..String$u20$as$u20$core..ops..deref..Deref$GT$5deref17h3aa06b37222c244bE
	str	x0, [sp, #96]
	str	x1, [sp, #104]
Ltmp810:
	b	LBB79_45
LBB79_45:
Ltmp811:
	.loc	22 0 13 is_stmt 0
	ldr	x1, [sp, #104]
	ldr	x0, [sp, #96]
	.loc	22 27 13
	bl	__ZN4core3str21_$LT$impl$u20$str$GT$4trim17h59c4ddee6d919106E
	str	x0, [sp, #80]
	str	x1, [sp, #88]
Ltmp812:
	b	LBB79_46
LBB79_46:
Ltmp813:
	.loc	22 0 13
	ldr	x1, [sp, #88]
	ldr	x0, [sp, #80]
	.loc	22 27 13
	bl	__ZN4core3str21_$LT$impl$u20$str$GT$5parse17h077d65e26ec0d31cE
	str	x0, [sp, #72]
Ltmp814:
	b	LBB79_47
LBB79_47:
	.loc	22 0 13
	ldr	x8, [sp, #72]
	.loc	22 27 13
	stur	x8, [x29, #-32]
	ldur	x8, [x29, #-32]
	stur	x8, [x29, #-176]
	ldur	x0, [x29, #-176]
Ltmp815:
	adrp	x1, l___unnamed_35@PAGE
	add	x1, x1, l___unnamed_35@PAGEOFF
	bl	__ZN4core6result19Result$LT$T$C$E$GT$6unwrap17hbea003f619e347b0E
	str	w0, [sp, #68]
Ltmp816:
	b	LBB79_48
LBB79_48:
Ltmp817:
	.loc	22 0 13
	add	x0, sp, #448
	.loc	22 27 48
	bl	__ZN65_$LT$alloc..string..String$u20$as$u20$core..ops..deref..Deref$GT$5deref17h3aa06b37222c244bE
	str	x0, [sp, #48]
	str	x1, [sp, #56]
Ltmp818:
	b	LBB79_49
LBB79_49:
Ltmp819:
	.loc	22 0 48
	ldr	x1, [sp, #56]
	ldr	x0, [sp, #48]
	.loc	22 27 48
	bl	__ZN4core3str21_$LT$impl$u20$str$GT$4trim17h59c4ddee6d919106E
	str	x0, [sp, #32]
	str	x1, [sp, #40]
Ltmp820:
	b	LBB79_50
LBB79_50:
Ltmp821:
	.loc	22 0 48
	ldr	x1, [sp, #40]
	ldr	x0, [sp, #32]
	.loc	22 27 48
	bl	__ZN4core3str21_$LT$impl$u20$str$GT$5parse17h077d65e26ec0d31cE
	str	x0, [sp, #24]
Ltmp822:
	b	LBB79_51
LBB79_51:
	.loc	22 0 48
	ldr	x8, [sp, #24]
	.loc	22 27 48
	stur	x8, [x29, #-24]
	ldur	x8, [x29, #-24]
	stur	x8, [x29, #-168]
	ldur	x0, [x29, #-168]
Ltmp823:
	adrp	x1, l___unnamed_36@PAGE
	add	x1, x1, l___unnamed_36@PAGEOFF
	bl	__ZN4core6result19Result$LT$T$C$E$GT$6unwrap17hbea003f619e347b0E
	str	w0, [sp, #20]
Ltmp824:
	b	LBB79_52
LBB79_52:
	.loc	22 0 48
	ldr	w8, [sp, #68]
	ldr	w9, [sp, #20]
	.loc	22 27 13
	subs	w8, w8, w9
	str	w8, [sp, #16]
	cset	w8, vs
	tbnz	w8, #0, LBB79_54
	b	LBB79_53
LBB79_53:
	.loc	22 0 13
	ldr	w8, [sp, #16]
	sub	x0, x29, #180
	.loc	22 27 13
	stur	w8, [x29, #-180]
Ltmp825:
	.loc	22 25 16 is_stmt 1
	bl	__ZN4core3fmt10ArgumentV111new_display17hd9502b70d4cb1d1cE
	str	x0, [sp]
	str	x1, [sp, #8]
Ltmp826:
	b	LBB79_55
LBB79_54:
Ltmp831:
	.loc	22 0 16 is_stmt 0
	adrp	x0, _str.2@PAGE
	add	x0, x0, _str.2@PAGEOFF
	mov	w8, #33
	mov	x1, x8
	adrp	x2, l___unnamed_37@PAGE
	add	x2, x2, l___unnamed_37@PAGEOFF
	.loc	22 27 13 is_stmt 1
	bl	__ZN4core9panicking5panic17h77e4e51e80f61eb1E
Ltmp832:
	b	LBB79_37
LBB79_55:
	.loc	22 0 13 is_stmt 0
	ldr	x8, [sp, #8]
	ldr	x9, [sp]
	sub	x2, x29, #200
	.loc	22 25 16 is_stmt 1
	stur	x9, [x29, #-200]
	stur	x8, [x29, #-192]
Ltmp827:
	sub	x8, x29, #248
	adrp	x0, l___unnamed_33@PAGE
	add	x0, x0, l___unnamed_33@PAGEOFF
	mov	w9, #2
	mov	x1, x9
	mov	w9, #1
	mov	x3, x9
	bl	__ZN4core3fmt9Arguments6new_v117h681e5db68844b188E
Ltmp828:
	b	LBB79_56
LBB79_56:
Ltmp829:
	.loc	22 0 16 is_stmt 0
	sub	x0, x29, #248
	.loc	22 25 16
	bl	__ZN3std2io5stdio6_print17hbd389a4b08e30d67E
Ltmp830:
	b	LBB79_57
LBB79_57:
	b	LBB79_41
LBB79_58:
Ltmp807:
	.loc	22 0 16
	sub	x0, x29, #160
	.loc	22 29 14 is_stmt 1
	bl	__ZN3std2io5stdio6_print17hbd389a4b08e30d67E
Ltmp808:
	b	LBB79_59
LBB79_59:
	b	LBB79_41
LBB79_60:
	.loc	22 0 14 is_stmt 0
	ldr	x8, [sp, #112]
	.loc	22 32 8 is_stmt 1
	subs	x8, x8, #0
	cset	w8, hi
	tbnz	w8, #0, LBB79_62
	b	LBB79_61
Ltmp887:
LBB79_61:
Ltmp861:
	.loc	22 0 8 is_stmt 0
	add	x0, sp, #544
	.loc	22 35 1 is_stmt 1
	bl	__ZN4core3ptr42drop_in_place$LT$alloc..string..String$GT$17hb29d7127b8a72c9aE
Ltmp862:
	b	LBB79_66
LBB79_62:
Ltmp857:
	.loc	22 0 1 is_stmt 0
	sub	x8, x29, #112
	adrp	x0, l___unnamed_38@PAGE
	add	x0, x0, l___unnamed_38@PAGEOFF
	mov	w9, #1
	mov	x1, x9
	adrp	x2, l___unnamed_7@PAGE
	add	x2, x2, l___unnamed_7@PAGEOFF
	mov	x3, #0
Ltmp888:
	.loc	22 33 9 is_stmt 1
	bl	__ZN4core3fmt9Arguments6new_v117h681e5db68844b188E
Ltmp858:
	b	LBB79_63
LBB79_63:
Ltmp859:
	.loc	22 0 9 is_stmt 0
	sub	x0, x29, #112
	.loc	22 33 9
	bl	__ZN3std2io5stdio6_print17hbd389a4b08e30d67E
Ltmp860:
	b	LBB79_64
LBB79_64:
	b	LBB79_61
Ltmp889:
LBB79_65:
Ltmp876:
	.loc	22 1 1 is_stmt 1
	bl	__ZN4core9panicking15panic_no_unwind17hccbe1214147c6397E
LBB79_66:
Ltmp864:
	.loc	22 0 1 is_stmt 0
	add	x0, sp, #448
Ltmp890:
	.loc	22 35 1 is_stmt 1
	bl	__ZN4core3ptr42drop_in_place$LT$alloc..string..String$GT$17hb29d7127b8a72c9aE
Ltmp865:
	b	LBB79_67
Ltmp891:
LBB79_67:
	.loc	22 0 1 is_stmt 0
	add	x0, sp, #352
	.loc	22 35 1
	bl	__ZN4core3ptr42drop_in_place$LT$alloc..string..String$GT$17hb29d7127b8a72c9aE
	.loc	22 35 2
	add	sp, sp, #912
	.cfi_def_cfa wsp, 32
	ldp	x29, x30, [sp, #16]
	ldp	x28, x27, [sp], #32
	.cfi_def_cfa_offset 0
	.cfi_restore w30
	.cfi_restore w29
	.cfi_restore w27
	.cfi_restore w28
	ret
LBB79_68:
	.cfi_restore_state
	.loc	22 1 1 is_stmt 1
	ldur	x0, [x29, #-64]
	bl	__Unwind_Resume
Ltmp892:
Lfunc_end79:
	.cfi_endproc
	.section	__TEXT,__gcc_except_tab
	.p2align	2
GCC_except_table79:
Lexception13:
	.byte	255
	.byte	255
	.byte	1
	.uleb128 Lcst_end13-Lcst_begin13
Lcst_begin13:
	.uleb128 Lfunc_begin79-Lfunc_begin79
	.uleb128 Ltmp767-Lfunc_begin79
	.byte	0
	.byte	0
	.uleb128 Ltmp767-Lfunc_begin79
	.uleb128 Ltmp768-Ltmp767
	.uleb128 Ltmp866-Lfunc_begin79
	.byte	0
	.uleb128 Ltmp874-Lfunc_begin79
	.uleb128 Ltmp875-Ltmp874
	.uleb128 Ltmp876-Lfunc_begin79
	.byte	0
	.uleb128 Ltmp769-Lfunc_begin79
	.uleb128 Ltmp778-Ltmp769
	.uleb128 Ltmp866-Lfunc_begin79
	.byte	0
	.uleb128 Ltmp779-Lfunc_begin79
	.uleb128 Ltmp780-Ltmp779
	.uleb128 Ltmp863-Lfunc_begin79
	.byte	0
	.uleb128 Ltmp872-Lfunc_begin79
	.uleb128 Ltmp873-Ltmp872
	.uleb128 Ltmp876-Lfunc_begin79
	.byte	0
	.uleb128 Ltmp781-Lfunc_begin79
	.uleb128 Ltmp790-Ltmp781
	.uleb128 Ltmp863-Lfunc_begin79
	.byte	0
	.uleb128 Ltmp791-Lfunc_begin79
	.uleb128 Ltmp792-Ltmp791
	.uleb128 Ltmp869-Lfunc_begin79
	.byte	0
	.uleb128 Ltmp870-Lfunc_begin79
	.uleb128 Ltmp871-Ltmp870
	.uleb128 Ltmp876-Lfunc_begin79
	.byte	0
	.uleb128 Ltmp793-Lfunc_begin79
	.uleb128 Ltmp808-Ltmp793
	.uleb128 Ltmp869-Lfunc_begin79
	.byte	0
	.uleb128 Ltmp861-Lfunc_begin79
	.uleb128 Ltmp862-Ltmp861
	.uleb128 Ltmp863-Lfunc_begin79
	.byte	0
	.uleb128 Ltmp857-Lfunc_begin79
	.uleb128 Ltmp860-Ltmp857
	.uleb128 Ltmp869-Lfunc_begin79
	.byte	0
	.uleb128 Ltmp864-Lfunc_begin79
	.uleb128 Ltmp865-Ltmp864
	.uleb128 Ltmp866-Lfunc_begin79
	.byte	0
	.uleb128 Ltmp865-Lfunc_begin79
	.uleb128 Lfunc_end79-Ltmp865
	.byte	0
	.byte	0
Lcst_end13:
	.p2align	2

	.section	__TEXT,__text,regular,pure_instructions
	.globl	_main
	.p2align	2
_main:
Lfunc_begin80:
	.cfi_startproc
	stp	x29, x30, [sp, #-16]!
	.cfi_def_cfa_offset 16
	mov	x29, sp
	.cfi_def_cfa w29, 16
	.cfi_offset w30, -8
	.cfi_offset w29, -16
	mov	x2, x1
	mov	x8, x0
	sxtw	x1, w8
	adrp	x0, __ZN10calculator4main17h206c8d0951c259afE@PAGE
	add	x0, x0, __ZN10calculator4main17h206c8d0951c259afE@PAGEOFF
	mov	w3, #0
	bl	__ZN3std2rt10lang_start17h77f7406a07e4a2bcE
	ldp	x29, x30, [sp], #16
	ret
Lfunc_end80:
	.cfi_endproc

	.section	__TEXT,__const
l___unnamed_4:
	.ascii	"internal error: entered unreachable code"

l___unnamed_39:
	.ascii	"/rustc/c5d82ed7a4ad94a538bb87e5016e7d5ce0bd434b/library/std/src/io/error/repr_bitpacked.rs"

	.section	__DATA,__const
	.p2align	3
l___unnamed_5:
	.quad	l___unnamed_39
	.asciz	"Z\000\000\000\000\000\000\000\030\001\000\000\r\000\000"

	.p2align	3
l___unnamed_1:
	.quad	__ZN4core3ptr85drop_in_place$LT$std..rt..lang_start$LT$$LP$$RP$$GT$..$u7b$$u7b$closure$u7d$$u7d$$GT$17hdf799576f600cefbE
	.asciz	"\b\000\000\000\000\000\000\000\b\000\000\000\000\000\000"
	.quad	__ZN4core3ops8function6FnOnce40call_once$u7b$$u7b$vtable.shim$u7d$$u7d$17h677577484515a2abE
	.quad	__ZN3std2rt10lang_start28_$u7b$$u7b$closure$u7d$$u7d$17h4e595feacafca2cfE
	.quad	__ZN3std2rt10lang_start28_$u7b$$u7b$closure$u7d$$u7d$17h4e595feacafca2cfE

	.section	__TEXT,__const
l___unnamed_40:
	.ascii	"invalid args"

	.section	__DATA,__const
	.p2align	3
l___unnamed_6:
	.quad	l___unnamed_40
	.asciz	"\f\000\000\000\000\000\000"

	.section	__TEXT,__const
	.p2align	3
l___unnamed_7:
	.byte	0

l___unnamed_41:
	.ascii	"/rustc/c5d82ed7a4ad94a538bb87e5016e7d5ce0bd434b/library/core/src/fmt/mod.rs"

	.section	__DATA,__const
	.p2align	3
l___unnamed_8:
	.quad	l___unnamed_41
	.asciz	"K\000\000\000\000\000\000\000\214\001\000\000\r\000\000"

	.section	__TEXT,__const
l___unnamed_42:
	.ascii	"/rustc/c5d82ed7a4ad94a538bb87e5016e7d5ce0bd434b/library/core/src/str/validations.rs"

	.section	__DATA,__const
	.p2align	3
l___unnamed_9:
	.quad	l___unnamed_42
	.asciz	"S\000\000\000\000\000\000\0001\000\000\000$\000\000"

	.p2align	3
l___unnamed_10:
	.quad	l___unnamed_42
	.asciz	"S\000\000\000\000\000\000\0008\000\000\000(\000\000"

	.p2align	3
l___unnamed_11:
	.quad	l___unnamed_42
	.asciz	"S\000\000\000\000\000\000\000@\000\000\000,\000\000"

	.p2align	3
l___unnamed_12:
	.quad	l___unnamed_42
	.asciz	"S\000\000\000\000\000\000\000^\000\000\000)\000\000"

	.p2align	3
l___unnamed_13:
	.quad	l___unnamed_42
	.asciz	"S\000\000\000\000\000\000\000c\000\000\000-\000\000"

	.p2align	3
l___unnamed_14:
	.quad	l___unnamed_42
	.asciz	"S\000\000\000\000\000\000\000h\000\000\0001\000\000"

	.section	__TEXT,__const
l___unnamed_43:
	.ascii	"/rustc/c5d82ed7a4ad94a538bb87e5016e7d5ce0bd434b/library/core/src/alloc/layout.rs"

	.section	__DATA,__const
	.p2align	3
l___unnamed_15:
	.quad	l___unnamed_43
	.asciz	"P\000\000\000\000\000\000\000\266\001\000\000)\000\000"

	.section	__TEXT,__const
	.p2align	4
_str.0:
	.ascii	"attempt to divide by zero"

	.section	__DATA,__const
	.p2align	3
l___unnamed_2:
	.quad	__ZN4core3ptr42drop_in_place$LT$std..io..error..Error$GT$17hdda6d1645bfe5b68E
	.asciz	"\b\000\000\000\000\000\000\000\b\000\000\000\000\000\000"
	.quad	__ZN58_$LT$std..io..error..Error$u20$as$u20$core..fmt..Debug$GT$3fmt17h0bed6a302d693a11E

	.section	__TEXT,__const
l___unnamed_16:
	.ascii	"called `Result::unwrap()` on an `Err` value"

	.section	__DATA,__const
	.p2align	3
l___unnamed_3:
	.quad	__ZN4core3ptr52drop_in_place$LT$core..num..error..ParseIntError$GT$17h67c66027c1c6c38aE
	.asciz	"\001\000\000\000\000\000\000\000\001\000\000\000\000\000\000"
	.quad	__ZN68_$LT$core..num..error..ParseIntError$u20$as$u20$core..fmt..Debug$GT$3fmt17he23894bf9796b57cE

	.section	__TEXT,__const
l___unnamed_44:
	.ascii	"/rustc/c5d82ed7a4ad94a538bb87e5016e7d5ce0bd434b/library/core/src/unicode/unicode_data.rs"

	.section	__DATA,__const
	.p2align	3
l___unnamed_17:
	.quad	l___unnamed_44
	.asciz	"X\000\000\000\000\000\000\000>\002\000\000\023\000\000"

	.p2align	3
l___unnamed_18:
	.quad	l___unnamed_44
	.asciz	"X\000\000\000\000\000\000\000<\002\000\000\022\000\000"

	.section	__TEXT,__literal16,16byte_literals
	.p2align	3
l___unnamed_19:
	.asciz	"\001\000\000\000\000\000\000\000\000\000\000\000\000\000\000"

	.section	__TEXT,__const
l___unnamed_45:
	.ascii	"/rustc/c5d82ed7a4ad94a538bb87e5016e7d5ce0bd434b/library/alloc/src/raw_vec.rs"

	.section	__DATA,__const
	.p2align	3
l___unnamed_20:
	.quad	l___unnamed_45
	.asciz	"L\000\000\000\000\000\000\000\367\000\000\000;\000\000"

	.section	__TEXT,__const
l___unnamed_46:
	.ascii	"Enter a number: \n"

	.section	__DATA,__const
	.p2align	3
l___unnamed_21:
	.quad	l___unnamed_46
	.asciz	"\021\000\000\000\000\000\000"

	.section	__TEXT,__const
l___unnamed_22:
	.ascii	"Failed to read line"

l___unnamed_47:
	.ascii	"src/main.rs"

	.section	__DATA,__const
	.p2align	3
l___unnamed_23:
	.quad	l___unnamed_47
	.asciz	"\013\000\000\000\000\000\000\000\007\000\000\000\n\000\000"

	.section	__TEXT,__const
l___unnamed_48:
	.ascii	"Enter another number: \n"

	.section	__DATA,__const
	.p2align	3
l___unnamed_24:
	.quad	l___unnamed_48
	.asciz	"\027\000\000\000\000\000\000"

	.p2align	3
l___unnamed_25:
	.quad	l___unnamed_47
	.asciz	"\013\000\000\000\000\000\000\000\f\000\000\000\n\000\000"

	.section	__TEXT,__const
l___unnamed_49:
	.ascii	"Choose an operation: + or -\n"

	.section	__DATA,__const
	.p2align	3
l___unnamed_26:
	.quad	l___unnamed_49
	.asciz	"\034\000\000\000\000\000\000"

	.p2align	3
l___unnamed_27:
	.quad	l___unnamed_47
	.asciz	"\013\000\000\000\000\000\000\000\022\000\000\000\n\000\000"

	.section	__TEXT,__const
l___unnamed_28:
	.byte	43

	.section	__TEXT,__literal8,8byte_literals
l___unnamed_50:
	.ascii	"Result: "

	.section	__TEXT,__const
l___unnamed_51:
	.byte	10

	.section	__DATA,__const
	.p2align	3
l___unnamed_33:
	.quad	l___unnamed_50
	.asciz	"\b\000\000\000\000\000\000"
	.quad	l___unnamed_51
	.asciz	"\001\000\000\000\000\000\000"

	.p2align	3
l___unnamed_30:
	.quad	l___unnamed_47
	.asciz	"\013\000\000\000\000\000\000\000\027\000\000\000%\000\000"

	.p2align	3
l___unnamed_31:
	.quad	l___unnamed_47
	.asciz	"\013\000\000\000\000\000\000\000\027\000\000\000H\000\000"

	.p2align	3
l___unnamed_32:
	.quad	l___unnamed_47
	.asciz	"\013\000\000\000\000\000\000\000\027\000\000\000\r\000\000"

	.section	__TEXT,__const
	.p2align	4
_str.1:
	.ascii	"attempt to add with overflow"

l___unnamed_29:
	.byte	45

	.section	__DATA,__const
	.p2align	3
l___unnamed_35:
	.quad	l___unnamed_47
	.asciz	"\013\000\000\000\000\000\000\000\033\000\000\000%\000\000"

	.p2align	3
l___unnamed_36:
	.quad	l___unnamed_47
	.asciz	"\013\000\000\000\000\000\000\000\033\000\000\000H\000\000"

	.p2align	3
l___unnamed_37:
	.quad	l___unnamed_47
	.asciz	"\013\000\000\000\000\000\000\000\033\000\000\000\r\000\000"

	.section	__TEXT,__const
	.p2align	4
_str.2:
	.ascii	"attempt to subtract with overflow"

l___unnamed_52:
	.ascii	"Invalid operation\n"

	.section	__DATA,__const
	.p2align	3
l___unnamed_34:
	.quad	l___unnamed_52
	.asciz	"\022\000\000\000\000\000\000"

	.section	__TEXT,__const
l___unnamed_53:
	.ascii	"ciao\n"

	.section	__DATA,__const
	.p2align	3
l___unnamed_38:
	.quad	l___unnamed_53
	.asciz	"\005\000\000\000\000\000\000"

	.section	__DATA,__const
Lsec_end0:
	.section	__TEXT,__text,regular,pure_instructions
Lsec_end1: